(i__main__
Benchmark
p1
(dp2
S'tests'
p3
(dp4
S'SpecialInstanceAttribute'
p5
(iLookups
SpecialInstanceAttribute
p6
(dp7
S'operations'
p8
I120
sS'overhead_times'
p9
(lp10
F0.0011170029640197754
aF0.0011150479316711427
asS'calibration_runs'
p11
I2
sS'timer'
p12
S'time.time'
p13
sS'times'
p14
(lp15
F0.3316121459007263
aF0.33143690824508665
aF0.32812479734420774
aF0.33265808820724485
aF0.32740286588668821
asS'version'
p16
F2
sS'warp'
p17
I4
sS'rounds'
p18
I25000
sS'last_timing'
p19
(F0.32740286588668821
F0.32851791381835938
F0.0011150479316711427
tp20
sbsS'PythonFunctionCalls'
p21
(iCalls
PythonFunctionCalls
p22
(dp23
g8
I55
sg9
(lp24
F0.00066834688186645508
aF0.00066709518432617188
asg11
I2
sg12
g13
sg14
(lp25
F0.28067493438720703
aF0.27917098999023438
aF0.2794339656829834
aF0.27923774719238281
aF0.27804899215698242
asg16
F2
sg17
I4
sg18
I15000
sg19
(F0.27804899215698242
F0.27871608734130859
F0.00066709518432617188
tp26
sbsS'CompareFloatsIntegers'
p27
(iNumbers
CompareFloatsIntegers
p28
(dp29
g8
I150
sg9
(lp30
F0.00066524744033813477
aF0.00066554546356201172
asg11
I2
sg12
g13
sg14
(lp31
F0.24776166677474976
aF0.24765175580978394
aF0.24755090475082397
aF0.24747461080551147
aF0.24764174222946167
asg16
F2
sg17
I4
sg18
I15000
sg19
(F0.24764174222946167
F0.2483069896697998
F0.00066524744033813477
tp32
sbsS'PythonMethodCalls'
p33
(iCalls
PythonMethodCalls
p34
(dp35
g8
I75
sg9
(lp36
F0.00034099817276000977
aF0.00033990144729614255
asg11
I2
sg12
g13
sg14
(lp37
F0.40921601057052615
aF0.40268715620040896
aF0.40379699468612673
aF0.40901812314987185
aF0.40683611631393435
asg16
F2
sg17
I4
sg18
I7500
sg19
(F0.40683611631393435
F0.40717601776123047
F0.00033990144729614255
tp38
sbsS'NestedListComprehensions'
p39
(iLists
NestedListComprehensions
p40
(dp41
g8
I6
sg9
(lp42
F0.00022355318069458007
aF0.00022355318069458007
asg11
I2
sg12
g13
sg14
(lp43
F0.34699257612228396
aF0.34874256849288943
aF0.34826048612594607
aF0.3493035674095154
aF0.35323866605758669
asg16
F2
sg17
I4
sg18
I5000
sg19
(F0.35323866605758669
F0.35346221923828125
F0.00022355318069458007
tp44
sbsS'SecondSubmoduleImport'
p45
(iImports
SecondSubmoduleImport
p46
(dp47
g8
I25
sg9
(lp48
F0.00044380426406860353
aF0.00044339895248413086
asg11
I2
sg12
g13
sg14
(lp49
F0.60366970300674438
aF0.60329347848892212
aF0.602924644947052
aF0.60362464189529419
aF0.60338360071182251
asg16
F2
sg17
I4
sg18
I10000
sg19
(F0.60338360071182251
F0.60382699966430664
F0.00044339895248413086
tp50
sbsS'DictWithIntegerKeys'
p51
(iDict
DictWithIntegerKeys
p52
(dp53
g8
I60
sg9
(lp54
F0.0022193074226379392
aF0.002222156524658203
asg11
I2
sg12
g13
sg14
(lp55
F0.26557577848434449
aF0.26810778379440309
aF0.26557172536849977
aF0.26551355123519899
aF0.26558078527450563
asg16
F2
sg17
I4
sg18
I50000
sg19
(F0.26558078527450563
F0.26780009269714355
F0.0022193074226379392
tp56
sbsS'UnicodeSlicing'
p57
(iUnicode
UnicodeSlicing
p58
(dp59
g8
I35
sg9
(lp60
F0.0016119003295898438
aF0.0016189932823181153
asg11
I2
sg12
g13
sg14
(lp61
F0.37838416099548339
aF0.3785231590270996
aF0.38211493492126464
aF0.38026814460754393
aF0.38015012741088866
asg16
F2
sg17
I4
sg18
I35000
sg19
(F0.38015012741088866
F0.38176202774047852
F0.0016119003295898438
tp62
sbsS'NestedForLoops'
p63
(iConstructs
NestedForLoops
p64
(dp65
g8
I50000
sg9
(lp66
F2.9957294464111326e-05
aF2.9253959655761716e-05
asg11
I2
sg12
g13
sg14
(lp67
F0.33015663623809816
aF0.3304987668991089
aF0.33035881519317628
aF0.33025891780853273
aF0.33032782077789308
asg16
F2
sg17
I4
sg18
I75
sg19
(F0.33032782077789308
F0.33035707473754883
F2.9253959655761716e-05
tp68
sbsS'UnicodePredicates'
p69
(iUnicode
UnicodePredicates
p70
(dp71
g8
I45
sg9
(lp72
F0.0064087033271789549
aF0.0063893556594848628
asg11
I2
sg12
g13
sg14
(lp73
F0.23415973186492919
aF0.23183085918426513
aF0.23222568035125732
aF0.23126962184906005
aF0.2320854902267456
asg16
F2
sg17
I4
sg18
I30000
sg19
(F0.2320854902267456
F0.23847484588623047
F0.0063893556594848628
tp74
sbsS'ForLoops'
p75
(iConstructs
ForLoops
p76
(dp77
g8
I25
sg9
(lp78
F0.00013635158538818359
aF0.00013536214828491211
asg11
I2
sg12
g13
sg14
(lp79
F0.30714064836502075
aF0.30709654092788696
aF0.30696064233779907
aF0.30696278810501099
aF0.306873619556427
asg16
F2
sg17
I4
sg18
I2500
sg19
(F0.306873619556427
F0.30700898170471191
F0.00013536214828491211
tp80
sbsS'ConcatStrings'
p81
(iStrings
ConcatStrings
p82
(dp83
g8
I50
sg9
(lp84
F0.0012103438377380372
aF0.0012087583541870118
asg11
I2
sg12
g13
sg14
(lp85
F0.30729725360870364
aF0.30770518779754641
aF0.30734326839447024
aF0.30754115581512453
aF0.30731132030487063
asg16
F2
sg17
I4
sg18
I25000
sg19
(F0.30731132030487063
F0.30852007865905762
F0.0012087583541870118
tp86
sbsS'SecondPackageImport'
p87
(iImports
SecondPackageImport
p88
(dp89
g8
I25
sg9
(lp90
F0.00044343471527099612
aF0.00044333934783935547
asg11
I2
sg12
g13
sg14
(lp91
F0.44607961177825928
aF0.44668352603912354
aF0.44905745983123779
aF0.44741666316986084
aF0.44622862339019775
asg16
F2
sg17
I4
sg18
I10000
sg19
(F0.44622862339019775
F0.44667196273803711
F0.00044333934783935547
tp92
sbsS'CompareIntegers'
p93
(iNumbers
CompareIntegers
p94
(dp95
g8
I150
sg9
(lp96
F0.0013309955596923829
aF0.0013329029083251954
asg11
I2
sg12
g13
sg14
(lp97
F0.24293193817138672
aF0.24293193817138672
aF0.24293217658996583
aF0.24293193817138672
aF0.24298486709594727
asg16
F2
sg17
I4
sg18
I30000
sg19
(F0.24298486709594727
F0.24431586265563965
F0.0013309955596923829
tp98
sbsS'CreateStringsWithConcat'
p99
(iStrings
CreateStringsWithConcat
p100
(dp101
g8
I50
sg9
(lp102
F0.0022245049476623535
aF0.0022197008132934567
asg11
I2
sg12
g13
sg14
(lp103
F0.38984534740447996
aF0.38694927692413328
aF0.38878438472747801
aF0.38738534450531004
aF0.38968822956085203
asg16
F2
sg17
I4
sg18
I50000
sg19
(F0.38968822956085203
F0.39190793037414551
F0.0022197008132934567
tp104
sbsS'SmallLists'
p105
(iLists
SmallLists
p106
(dp107
g8
I85
sg9
(lp108
F0.00088815689086914058
aF0.00088704824447631829
asg11
I2
sg12
g13
sg14
(lp109
F0.32488499879837035
aF0.32688103914260863
aF0.32551180124282836
aF0.32829200029373168
aF0.3260527729988098
asg16
F2
sg17
I4
sg18
I20000
sg19
(F0.3260527729988098
F0.32693982124328613
F0.00088704824447631829
tp110
sbsS'CompareUnicode'
p111
(iUnicode
CompareUnicode
p112
(dp113
g8
I50
sg9
(lp114
F0.0016899466514587404
aF0.0016973972320556642
asg11
I2
sg12
g13
sg14
(lp115
F0.30607005357742312
aF0.30570026636123659
aF0.30552097558975222
aF0.30591007471084597
aF0.30579611063003542
asg16
F2
sg17
I4
sg18
I37500
sg19
(F0.30579611063003542
F0.30748605728149414
F0.0016899466514587404
tp116
sbsS'SimpleListManipulation'
p117
(iLists
SimpleListManipulation
p118
(dp119
g8
I90
sg9
(lp120
F0.0014479517936706544
aF0.0014429569244384765
asg11
I2
sg12
g13
sg14
(lp121
F0.221712064743042
aF0.2225050449371338
aF0.22262997627258302
aF0.22241492271423341
aF0.22253198623657228
asg16
F2
sg17
I4
sg18
I32500
sg19
(F0.22253198623657228
F0.22397494316101074
F0.0014429569244384765
tp122
sbsS'DictWithFloatKeys'
p123
(iDict
DictWithFloatKeys
p124
(dp125
g8
I60
sg9
(lp126
F0.0016682028770446777
aF0.0016689419746398926
asg11
I2
sg12
g13
sg14
(lp127
F0.26965476274490358
aF0.27134085893630983
aF0.26942278146743776
aF0.26972080469131471
aF0.26980186700820924
asg16
F2
sg17
I4
sg18
I37500
sg19
(F0.26980186700820924
F0.27147006988525391
F0.0016682028770446777
tp128
sbsS'CreateNewInstances'
p129
(iNewInstances
CreateNewInstances
p130
(dp131
g8
I14
sg9
(lp132
F0.00078935623168945306
aF0.00077894926071166994
asg11
I2
sg12
g13
sg14
(lp133
F0.30240722894668581
aF0.30427404642105105
aF0.30989285707473757
aF0.30784817934036257
aF0.30187913179397585
asg16
F2
sg17
I4
sg18
I15000
sg19
(F0.30187913179397585
F0.3026580810546875
F0.00077894926071166994
tp134
sbsS'TryExcept'
p135
(iExceptions
TryExcept
p136
(dp137
g8
I150
sg9
(lp138
F0.0016690969467163086
aF0.0016648530960083009
asg11
I2
sg12
g13
sg14
(lp139
F0.19330527782440185
aF0.19330718517303466
aF0.19329907894134521
aF0.1932969331741333
aF0.19329526424407958
asg16
F2
sg17
I4
sg18
I37500
sg19
(F0.19329526424407958
F0.19496011734008789
F0.0016648530960083009
tp140
sbsS'ComplexPythonFunctionCalls'
p141
(iCalls
ComplexPythonFunctionCalls
p142
(dp143
g8
I20
sg9
(lp144
F0.001114189624786377
aF0.0011156439781188966
asg11
I2
sg12
g13
sg14
(lp145
F0.34640282392501831
aF0.34354275465011597
aF0.34368866682052612
aF0.34188979864120483
aF0.34569782018661499
asg16
F2
sg17
I4
sg18
I25000
sg19
(F0.34569782018661499
F0.34681200981140137
F0.001114189624786377
tp146
sbsS'TryRaiseExcept'
p147
(iExceptions
TryRaiseExcept
p148
(dp149
g8
I8
sg9
(lp150
F0.00088974237442016599
aF0.00088758468627929692
asg11
I2
sg12
g13
sg14
(lp151
F0.42244153022766112
aF0.42266349792480468
aF0.42201428413391112
aF0.42013244628906249
aF0.4213555335998535
asg16
F2
sg17
I4
sg18
I20000
sg19
(F0.4213555335998535
F0.42224311828613281
F0.00088758468627929692
tp152
sbsS'IfThenElse'
p153
(iConstructs
IfThenElse
p154
(dp155
g8
I90
sg9
(lp156
F0.001665651798248291
aF0.0016641497611999511
asg11
I2
sg12
g13
sg14
(lp157
F0.23947788476943971
aF0.23907281160354615
aF0.23977376222610475
aF0.23892999887466432
aF0.23940683603286744
asg16
F2
sg17
I4
sg18
I37500
sg19
(F0.23940683603286744
F0.24107098579406738
F0.0016641497611999511
tp158
sbsS'NormalInstanceAttribute'
p159
(iLookups
NormalInstanceAttribute
p160
(dp161
g8
I120
sg9
(lp162
F0.0011171579360961916
aF0.0011196494102478029
asg11
I2
sg12
g13
sg14
(lp163
F0.2721489191055298
aF0.27225477695465089
aF0.2723026990890503
aF0.27260286808013917
aF0.27218182086944581
asg16
F2
sg17
I4
sg18
I25000
sg19
(F0.27218182086944581
F0.27329897880554199
F0.0011171579360961916
tp164
sbsS'BuiltinFunctionCalls'
p165
(iCalls
BuiltinFunctionCalls
p166
(dp167
g8
I85
sg9
(lp168
F0.00066639184951782231
aF0.00066709518432617188
asg11
I2
sg12
g13
sg14
(lp169
F0.32904957532882689
aF0.33135269880294799
aF0.32896755933761596
aF0.33007644414901732
aF0.33036469221115111
asg16
F2
sg17
I4
sg18
I15000
sg19
(F0.33036469221115111
F0.33103108406066895
F0.00066639184951782231
tp170
sbsS'UnicodeMappings'
p171
(iUnicode
UnicodeMappings
p172
(dp173
g8
I36
sg9
(lp174
F0.00069791078567504883
aF0.00068930387496948244
asg11
I2
sg12
g13
sg14
(lp175
F0.23611470460891723
aF0.23694773912429809
aF0.23663469552993774
aF0.23670789003372192
aF0.23653980493545532
asg16
F2
sg17
I4
sg18
I2500
sg19
(F0.23653980493545532
F0.2372291088104248
F0.00068930387496948244
tp176
sbsS'CompareFloats'
p177
(iNumbers
CompareFloats
p178
(dp179
g8
I150
sg9
(lp180
F0.00088748931884765627
aF0.00088729858398437498
asg11
I2
sg12
g13
sg14
(lp181
F0.22906050682067872
aF0.22911176681518555
aF0.22917470932006836
aF0.22922978401184083
aF0.22913870811462403
asg16
F2
sg17
I4
sg18
I20000
sg19
(F0.22913870811462403
F0.2300260066986084
F0.00088729858398437498
tp182
sbsS'StringMappings'
p183
(iStrings
StringMappings
p184
(dp185
g8
I36
sg9
(lp186
F0.00091439485549926758
aF0.00091240406036376955
asg11
I2
sg12
g13
sg14
(lp187
F0.25868251323699953
aF0.26102354526519778
aF0.26203968524932864
aF0.26196959018707278
aF0.26293852329254153
asg16
F2
sg17
I4
sg18
I17500
sg19
(F0.26293852329254153
F0.26385092735290527
F0.00091240406036376955
tp188
sbsS'TryFinally'
p189
(iWith
TryFinally
p190
(dp191
g8
I20
sg9
(lp192
F0.00088870525360107422
aF0.00088855028152465818
asg11
I2
sg12
g13
sg14
(lp193
F0.28607467412948606
aF0.28461841344833372
aF0.28512433767318723
aF0.28454450368881223
aF0.28383163213729856
asg16
F2
sg17
I4
sg18
I20000
sg19
(F0.28383163213729856
F0.28472018241882324
F0.00088855028152465818
tp194
sbsS'Recursion'
p195
(iCalls
Recursion
p196
(dp197
g8
I5
sg9
(lp198
F0.0011113524436950684
aF0.001110053062438965
asg11
I2
sg12
g13
sg14
(lp199
F0.37667396068573
aF0.37677290439605715
aF0.37662389278411867
aF0.37683894634246828
aF0.37665703296661379
asg16
F2
sg17
I4
sg18
I25000
sg19
(F0.37665703296661379
F0.37776708602905273
F0.001110053062438965
tp200
sbsS'SimpleLongArithmetic'
p201
(iArithmetic
SimpleLongArithmetic
p202
(dp203
g8
I110
sg9
(lp204
F0.00066640377044677732
aF0.00066519975662231439
asg11
I2
sg12
g13
sg14
(lp205
F0.23732398748397826
aF0.23725675344467162
aF0.23765181303024291
aF0.23669170141220092
aF0.23692082166671752
asg16
F2
sg17
I4
sg18
I15000
sg19
(F0.23692082166671752
F0.23758602142333984
F0.00066519975662231439
tp206
sbsS'SimpleDictManipulation'
p207
(iDict
SimpleDictManipulation
p208
(dp209
g8
I120
sg9
(lp210
F0.0011102437973022461
aF0.0011114358901977539
asg11
I2
sg12
g13
sg14
(lp211
F0.27169878482818605
aF0.27470262050628663
aF0.27133471965789796
aF0.27141363620758058
aF0.27161080837249757
asg16
F2
sg17
I4
sg18
I25000
sg19
(F0.27161080837249757
F0.2727210521697998
F0.0011102437973022461
tp212
sbsS'WithRaiseExcept'
p213
(iWith
WithRaiseExcept
p214
(dp215
g8
I8
sg9
(lp216
F0.0011120438575744629
aF0.0011108994483947753
asg11
I2
sg12
g13
sg14
(lp217
F1.005424153804779
aF0.99479020833969112
aF1.0033742308616638
aF0.99738706350326534
aF1.0047942519187927
asg16
F2
sg17
I4
sg18
I25000
sg19
(F1.0047942519187927
F1.0059051513671875
F0.0011108994483947753
tp218
sbsS'UnicodeProperties'
p219
(iUnicode
UnicodeProperties
p220
(dp221
g8
I40
sg9
(lp222
F0.0053114056587219233
aF0.0053102970123291016
asg11
I2
sg12
g13
sg14
(lp223
F0.33326554298400879
aF0.33517861366271973
aF0.33560585975646973
aF0.33505773544311523
aF0.33473777770996094
asg16
F2
sg17
I4
sg18
I25000
sg19
(F0.33473777770996094
F0.34004807472229004
F0.0053102970123291016
tp224
sbsS'SimpleIntFloatArithmetic'
p225
(iArithmetic
SimpleIntFloatArithmetic
p226
(dp227
g8
I110
sg9
(lp228
F0.0013355016708374023
aF0.0013313531875610352
asg11
I2
sg12
g13
sg14
(lp229
F0.21198270320892335
aF0.21147654056549073
aF0.21183464527130128
aF0.21242282390594483
aF0.21189663410186768
asg16
F2
sg17
I4
sg18
I30000
sg19
(F0.21189663410186768
F0.21322798728942871
F0.0013313531875610352
tp230
sbsS'CreateUnicodeWithConcat'
p231
(iUnicode
CreateUnicodeWithConcat
p232
(dp233
g8
I50
sg9
(lp234
F0.00088721513748168945
aF0.00088740587234497064
asg11
I2
sg12
g13
sg14
(lp235
F0.97680968046188354
aF0.27084487676620483
aF0.2712056040763855
aF0.27096694707870483
aF0.27100962400436401
asg16
F2
sg17
I4
sg18
I20000
sg19
(F0.27100962400436401
F0.2718968391418457
F0.00088721513748168945
tp236
sbsS'ListSlicing'
p237
(iLists
ListSlicing
p238
(dp239
g8
I175
sg9
(lp240
F0.00027909278869628904
aF0.00027819871902465818
asg11
I2
sg12
g13
sg14
(lp241
F0.35242775678634641
aF0.35273579359054563
aF0.35251978635787962
aF0.35265187025070188
aF0.35211971998214719
asg16
F2
sg17
I4
sg18
I200
sg19
(F0.35211971998214719
F0.35239791870117188
F0.00027819871902465818
tp242
sbsS'SimpleListComprehensions'
p243
(iLists
SimpleListComprehensions
p244
(dp245
g8
I6
sg9
(lp246
F0.00022519826889038085
aF0.00022485256195068357
asg11
I2
sg12
g13
sg14
(lp247
F0.29113004207611082
aF0.29153726100921629
aF0.29256913661956785
aF0.2926831007003784
aF0.29790899753570554
asg16
F2
sg17
I4
sg18
I5000
sg19
(F0.29790899753570554
F0.29813385009765625
F0.00022485256195068357
tp248
sbsS'CompareLongs'
p249
(iNumbers
CompareLongs
p250
(dp251
g8
I150
sg9
(lp252
F0.00077905654907226571
aF0.00077650547027587893
asg11
I2
sg12
g13
sg14
(lp253
F0.23047640323638915
aF0.23069550991058349
aF0.23067142963409423
aF0.2306204080581665
aF0.23050048351287841
asg16
F2
sg17
I4
sg18
I17500
sg19
(F0.23050048351287841
F0.2312769889831543
F0.00077650547027587893
tp254
sbsS'SimpleIntegerArithmetic'
p255
(iArithmetic
SimpleIntegerArithmetic
p256
(dp257
g8
I110
sg9
(lp258
F0.0013310432434082032
aF0.0013309955596923829
asg11
I2
sg12
g13
sg14
(lp259
F0.21205697059631348
aF0.21182904243469239
aF0.21179304122924805
aF0.21187505722045899
aF0.21163902282714844
asg16
F2
sg17
I4
sg18
I30000
sg19
(F0.21163902282714844
F0.21297001838684082
F0.0013309955596923829
tp260
sbsS'SpecialClassAttribute'
p261
(iLookups
SpecialClassAttribute
p262
(dp263
g8
I120
sg9
(lp264
F0.0011156916618347168
aF0.0011152982711791993
asg11
I2
sg12
g13
sg14
(lp265
F0.29374077320098879
aF0.29359581470489504
aF0.2924907445907593
aF0.29329373836517336
aF0.29277851581573489
asg16
F2
sg17
I4
sg18
I25000
sg19
(F0.29277851581573489
F0.29389381408691406
F0.0011152982711791993
tp266
sbsS'SecondImport'
p267
(iImports
SecondImport
p268
(dp269
g8
I25
sg9
(lp270
F0.00044355392456054684
aF0.00044341087341308593
asg11
I2
sg12
g13
sg14
(lp271
F0.44562463760375975
aF0.450376558303833
aF0.45066146850585936
aF0.45080571174621581
aF0.44818263053894042
asg16
F2
sg17
I4
sg18
I10000
sg19
(F0.44818263053894042
F0.44862604141235352
F0.00044341087341308593
tp272
sbsS'WithFinally'
p273
(iWith
WithFinally
p274
(dp275
g8
I20
sg9
(lp276
F0.00089070796966552737
aF0.00088920593261718748
asg11
I2
sg12
g13
sg14
(lp277
F0.40285000801086424
aF0.39833292961120603
aF0.40068898200988767
aF0.40208086967468259
aF0.3992129325866699
asg16
F2
sg17
I4
sg18
I20000
sg19
(F0.3992129325866699
F0.40010213851928711
F0.00088920593261718748
tp278
sbsS'TupleSlicing'
p279
(iTuples
TupleSlicing
p280
(dp281
g8
I5250
sg9
(lp282
F0.00017755031585693358
aF0.00017780065536499023
asg11
I2
sg12
g13
sg14
(lp283
F0.30038459300994874
aF0.30185945034027101
aF0.30258638858795167
aF0.30155761241912843
aF0.30110628604888917
asg16
F2
sg17
I4
sg18
I125
sg19
(F0.30110628604888917
F0.30128383636474609
F0.00017755031585693358
tp284
sbsS'SimpleFloatArithmetic'
p285
(iArithmetic
SimpleFloatArithmetic
p286
(dp287
g8
I110
sg9
(lp288
F0.0013316631317138673
aF0.0013311028480529786
asg11
I2
sg12
g13
sg14
(lp289
F0.25233577489852904
aF0.25598095655441283
aF0.25339292287826537
aF0.25300287008285521
aF0.25703786611557006
asg16
F2
sg17
I4
sg18
I30000
sg19
(F0.25703786611557006
F0.25836896896362305
F0.0013311028480529786
tp290
sbsS'StringPredicates'
p291
(iStrings
StringPredicates
p292
(dp293
g8
I70
sg9
(lp294
F0.0053126931190490721
aF0.0053220510482788084
asg11
I2
sg12
g13
sg14
(lp295
F0.27267621755599974
aF0.27262233495712279
aF0.27332233190536498
aF0.27292345762252807
aF0.27290319204330443
asg16
F2
sg17
I4
sg18
I25000
sg19
(F0.27290319204330443
F0.27821588516235352
F0.0053126931190490721
tp296
sbsS'BuiltinMethodLookup'
p297
(iLookups
BuiltinMethodLookup
p298
(dp299
g8
I150
sg9
(lp300
F0.00077841281890869143
aF0.00077714920043945321
asg11
I2
sg12
g13
sg14
(lp301
F0.24083671569824219
aF0.24063787460327149
aF0.24081573486328126
aF0.24054584503173829
aF0.24091181755065919
asg16
F2
sg17
I4
sg18
I17500
sg19
(F0.24091181755065919
F0.24168896675109863
F0.00077714920043945321
tp302
sbsS'SimpleComplexArithmetic'
p303
(iArithmetic
SimpleComplexArithmetic
p304
(dp305
g8
I110
sg9
(lp306
F0.00088700056076049803
aF0.00089210271835327148
asg11
I2
sg12
g13
sg14
(lp307
F0.22822705507278443
aF0.22778502702713013
aF0.22777096033096314
aF0.22805896997451783
aF0.22778788805007935
asg16
F2
sg17
I4
sg18
I20000
sg19
(F0.22778788805007935
F0.22867488861083984
F0.00088700056076049803
tp308
sbsS'ConcatUnicode'
p309
(iUnicode
ConcatUnicode
p310
(dp311
g8
I50
sg9
(lp312
F0.00077021121978759766
aF0.00076860189437866211
asg11
I2
sg12
g13
sg14
(lp313
F0.33295232057571411
aF0.32218533754348755
aF0.3239784836769104
aF0.32314330339431763
aF0.32316428422927856
asg16
F2
sg17
I4
sg18
I15000
sg19
(F0.32316428422927856
F0.32393288612365723
F0.00076860189437866211
tp314
sbsS'CompareInternedStrings'
p315
(iStrings
CompareInternedStrings
p316
(dp317
g8
I50
sg9
(lp318
F0.0033433556556701658
aF0.003361392021179199
asg11
I2
sg12
g13
sg14
(lp319
F0.28990267515182494
aF0.29245065450668334
aF0.30105875730514525
aF0.30004953145980834
aF0.29823969602584838
asg16
F2
sg17
I4
sg18
I75000
sg19
(F0.29823969602584838
F0.30158305168151855
F0.0033433556556701658
tp320
sbsS'CompareStrings'
p321
(iStrings
CompareStrings
p322
(dp323
g8
I50
sg9
(lp324
F0.002238500118255615
aF0.0022463083267211911
asg11
I2
sg12
g13
sg14
(lp325
F0.23296452760696412
aF0.23307157754898072
aF0.23299242258071901
aF0.23311640024185182
aF0.23292566537857057
asg16
F2
sg17
I4
sg18
I50000
sg19
(F0.23292566537857057
F0.23516416549682617
F0.002238500118255615
tp326
sbsS'SmallTuples'
p327
(iTuples
SmallTuples
p328
(dp329
g8
I60
sg9
(lp330
F0.0010000467300415039
aF0.00099815130233764653
asg11
I2
sg12
g13
sg14
(lp331
F0.30433784723281859
aF0.30420886278152465
aF0.30530987977981566
aF0.30367790460586547
aF0.30301486253738402
asg16
F2
sg17
I4
sg18
I22500
sg19
(F0.30301486253738402
F0.30401301383972168
F0.00099815130233764653
tp332
sbsS'NormalClassAttribute'
p333
(iLookups
NormalClassAttribute
p334
(dp335
g8
I120
sg9
(lp336
F0.0011151075363159181
aF0.0011139035224914551
asg11
I2
sg12
g13
sg14
(lp337
F0.29116820096969603
aF0.29662321805953978
aF0.29512904882431029
aF0.29558323621749877
aF0.29528926610946654
asg16
F2
sg17
I4
sg18
I25000
sg19
(F0.29528926610946654
F0.29640316963195801
F0.0011139035224914551
tp338
sbsS'CreateInstances'
p339
(iInstances
CreateInstances
p340
(dp341
g8
I14
sg9
(lp342
F0.000899803638458252
aF0.00090395212173461921
asg11
I2
sg12
g13
sg14
(lp343
F0.41707013845443724
aF0.4238381266593933
aF0.41890524625778197
aF0.41820310354232787
aF0.41931627988815307
asg16
F2
sg17
I4
sg18
I20000
sg19
(F0.41931627988815307
F0.42021608352661133
F0.000899803638458252
tp344
sbsS'DictWithStringKeys'
p345
(iDict
DictWithStringKeys
p346
(dp347
g8
I60
sg9
(lp348
F0.0022199630737304689
aF0.0022224068641662599
asg11
I2
sg12
g13
sg14
(lp349
F0.24676413536071778
aF0.24949998855590821
aF0.24696798324584962
aF0.24712104797363282
aF0.24696822166442872
asg16
F2
sg17
I4
sg18
I50000
sg19
(F0.24696822166442872
F0.24918818473815918
F0.0022199630737304689
tp350
sbsS'DictCreation'
p351
(iDict
DictCreation
p352
(dp353
g8
I50
sg9
(lp354
F0.00088759660720825193
aF0.00088704824447631829
asg11
I2
sg12
g13
sg14
(lp355
F0.21399484872817992
aF0.21407114267349242
aF0.21429406404495238
aF0.21313391923904418
aF0.21306596994400023
asg16
F2
sg17
I4
sg18
I20000
sg19
(F0.21306596994400023
F0.21395301818847656
F0.00088704824447631829
tp356
sbsS'StringSlicing'
p357
(iStrings
StringSlicing
p358
(dp359
g8
I35
sg9
(lp360
F0.0018350481986999512
aF0.0018247485160827637
asg11
I2
sg12
g13
sg14
(lp361
F0.26389037370681762
aF0.26549421548843383
aF0.26568113565444945
aF0.26576029062271117
aF0.26787720918655394
asg16
F2
sg17
I4
sg18
I40000
sg19
(F0.26787720918655394
F0.26970195770263672
F0.0018247485160827637
tp362
sbssS'name'
p363
S'run1.pybench'
p364
sg11
I2
sg17
I4
sS'machine_details'
p365
(dp366
S'platform'
p367
S'Linux-4.18.0-2-amd64-x86_64-with-debian-buster-sid'
p368
sS'executable'
p369
S'/dev/shm/python27/python2.7-2.7.15/build-shared/python'
p370
sS'builddate'
p371
S'Nov 28 2018 16:27:22'
p372
sS'unicode'
p373
S'UCS4'
p374
sS'implementation'
p375
S'CPython'
p376
sS'compiler'
p377
S'GCC Intel(R) C++ gcc 8.2 mode'
p378
sS'bits'
p379
S'64bit'
p380
sS'processor'
p381
S''
sS'buildno'
p382
S'default'
p383
sS'python'
p384
S'2.7.15+'
p385
ssg12
g13
sg16
F2
sS'roundtimes'
p386
(lp387
F18.887976491451266
aF18.188360536098486
aF18.202669465541845
aF18.195098245143896
aF18.198173129558569
asg18
I5
sS'verbose'
p388
I0
sb.