(i__main__
Benchmark
p1
(dp2
S'tests'
p3
(dp4
S'SpecialInstanceAttribute'
p5
(iLookups
SpecialInstanceAttribute
p6
(dp7
S'operations'
p8
I120
sS'overhead_times'
p9
(lp10
F0.0011200904846191406
aF0.0011171460151672362
asS'calibration_runs'
p11
I2
sS'timer'
p12
S'time.time'
p13
sS'times'
p14
(lp15
F0.33253082036972048
aF0.332212769985199
aF0.3317700266838074
aF0.33273395299911501
aF0.32832082509994509
asS'version'
p16
F2
sS'warp'
p17
I4
sS'rounds'
p18
I25000
sS'last_timing'
p19
(F0.32832082509994509
F0.3294379711151123
F0.0011171460151672362
tp20
sbsS'PythonFunctionCalls'
p21
(iCalls
PythonFunctionCalls
p22
(dp23
g8
I55
sg9
(lp24
F0.00066795349121093759
aF0.00066806077957153325
asg11
I2
sg12
g13
sg14
(lp25
F0.28291306495666502
aF0.28050122261047361
aF0.28016910552978513
aF0.28058609962463377
aF0.27980313301086424
asg16
F2
sg17
I4
sg18
I15000
sg19
(F0.27980313301086424
F0.2804710865020752
F0.00066795349121093759
tp26
sbsS'CompareFloatsIntegers'
p27
(iNumbers
CompareFloatsIntegers
p28
(dp29
g8
I150
sg9
(lp30
F0.00066565275192260749
aF0.00066530704498291016
asg11
I2
sg12
g13
sg14
(lp31
F0.24759972095489502
aF0.24751269817352295
aF0.24760472774505615
aF0.24757874011993408
aF0.24755370616912842
asg16
F2
sg17
I4
sg18
I15000
sg19
(F0.24755370616912842
F0.24821901321411133
F0.00066530704498291016
tp32
sbsS'PythonMethodCalls'
p33
(iCalls
PythonMethodCalls
p34
(dp35
g8
I75
sg9
(lp36
F0.00034090280532836912
aF0.00033985376358032228
asg11
I2
sg12
g13
sg14
(lp37
F0.41689003705978395
aF0.4056681513786316
aF0.4105960249900818
aF0.40584100484848024
aF0.40549219846725465
asg16
F2
sg17
I4
sg18
I7500
sg19
(F0.40549219846725465
F0.40583205223083496
F0.00033985376358032228
tp38
sbsS'NestedListComprehensions'
p39
(iLists
NestedListComprehensions
p40
(dp41
g8
I6
sg9
(lp42
F0.00022345781326293945
aF0.00022399425506591797
asg11
I2
sg12
g13
sg14
(lp43
F0.34876245260238647
aF0.34716957807540894
aF0.34784144163131714
aF0.34619969129562378
aF0.34955567121505737
asg16
F2
sg17
I4
sg18
I5000
sg19
(F0.34955567121505737
F0.34977912902832031
F0.00022345781326293945
tp44
sbsS'SecondSubmoduleImport'
p45
(iImports
SecondSubmoduleImport
p46
(dp47
g8
I25
sg9
(lp48
F0.00044449567794799803
aF0.00044350624084472657
asg11
I2
sg12
g13
sg14
(lp49
F0.59714455604553218
aF0.60506958961486812
aF0.60789461135864253
aF0.60553855895996089
aF0.6101636409759521
asg16
F2
sg17
I4
sg18
I10000
sg19
(F0.6101636409759521
F0.61060714721679688
F0.00044350624084472657
tp50
sbsS'DictWithIntegerKeys'
p51
(iDict
DictWithIntegerKeys
p52
(dp53
g8
I60
sg9
(lp54
F0.0022277474403381349
aF0.0022268056869506835
asg11
I2
sg12
g13
sg14
(lp55
F0.26446321010589602
aF0.26458504199981692
aF0.26445128917694094
aF0.26434519290924074
aF0.26447298526763918
asg16
F2
sg17
I4
sg18
I50000
sg19
(F0.26447298526763918
F0.26669979095458984
F0.0022268056869506835
tp56
sbsS'UnicodeSlicing'
p57
(iUnicode
UnicodeSlicing
p58
(dp59
g8
I35
sg9
(lp60
F0.0016124963760375977
aF0.0016068100929260253
asg11
I2
sg12
g13
sg14
(lp61
F0.37711204290390016
aF0.37972105741500856
aF0.37850512266159059
aF0.37867630720138551
aF0.37678636312484742
asg16
F2
sg17
I4
sg18
I35000
sg19
(F0.37678636312484742
F0.37839317321777344
F0.0016068100929260253
tp62
sbsS'NestedForLoops'
p63
(iConstructs
NestedForLoops
p64
(dp65
g8
I50000
sg9
(lp66
F3.0052661895751952e-05
aF2.9802322387695312e-05
asg11
I2
sg12
g13
sg14
(lp67
F0.32937717437744141
aF0.32987833023071289
aF0.33577322959899902
aF0.32729339599609375
aF0.32987618446350098
asg16
F2
sg17
I4
sg18
I75
sg19
(F0.32987618446350098
F0.32990598678588867
F2.9802322387695312e-05
tp68
sbsS'UnicodePredicates'
p69
(iUnicode
UnicodePredicates
p70
(dp71
g8
I45
sg9
(lp72
F0.0063644051551818848
aF0.0063956022262573239
asg11
I2
sg12
g13
sg14
(lp73
F0.23232263326644897
aF0.23406356573104858
aF0.23298758268356323
aF0.23459070920944214
aF0.23307150602340698
asg16
F2
sg17
I4
sg18
I30000
sg19
(F0.23307150602340698
F0.23943591117858887
F0.0063644051551818848
tp74
sbsS'ForLoops'
p75
(iConstructs
ForLoops
p76
(dp77
g8
I25
sg9
(lp78
F0.00013639926910400388
aF0.00013530254364013672
asg11
I2
sg12
g13
sg14
(lp79
F0.30646765232086182
aF0.30643379688262939
aF0.30645358562469482
aF0.30723273754119873
aF0.3064197301864624
asg16
F2
sg17
I4
sg18
I2500
sg19
(F0.3064197301864624
F0.30655503273010254
F0.00013530254364013672
tp80
sbsS'ConcatStrings'
p81
(iStrings
ConcatStrings
p82
(dp83
g8
I50
sg9
(lp84
F0.0012088537216186524
aF0.0012079596519470215
asg11
I2
sg12
g13
sg14
(lp85
F0.30073295831680297
aF0.30064092874526976
aF0.30088912248611449
aF0.30105220079421996
aF0.30096517801284789
asg16
F2
sg17
I4
sg18
I25000
sg19
(F0.30096517801284789
F0.30217313766479492
F0.0012079596519470215
tp86
sbsS'SecondPackageImport'
p87
(iImports
SecondPackageImport
p88
(dp89
g8
I25
sg9
(lp90
F0.00044355392456054684
aF0.00044410228729248048
asg11
I2
sg12
g13
sg14
(lp91
F0.44099059104919436
aF0.45316162109375002
aF0.45291962623596194
aF0.4506255626678467
aF0.45525159835815432
asg16
F2
sg17
I4
sg18
I10000
sg19
(F0.45525159835815432
F0.45569515228271484
F0.00044355392456054684
tp92
sbsS'CompareIntegers'
p93
(iNumbers
CompareIntegers
p94
(dp95
g8
I150
sg9
(lp96
F0.0013351082801818849
aF0.0013309597969055178
asg11
I2
sg12
g13
sg14
(lp97
F0.24295295476913453
aF0.24294914007186891
aF0.24299801588058473
aF0.24307502508163453
aF0.24296916723251344
asg16
F2
sg17
I4
sg18
I30000
sg19
(F0.24296916723251344
F0.24430012702941895
F0.0013309597969055178
tp98
sbsS'CreateStringsWithConcat'
p99
(iStrings
CreateStringsWithConcat
p100
(dp101
g8
I50
sg9
(lp102
F0.0022186994552612304
aF0.0022271513938903809
asg11
I2
sg12
g13
sg14
(lp103
F0.39052321910858157
aF0.39029338359832766
aF0.38945248126983645
aF0.39328243732452395
aF0.38933923244476321
asg16
F2
sg17
I4
sg18
I50000
sg19
(F0.38933923244476321
F0.39155793190002441
F0.0022186994552612304
tp104
sbsS'SmallLists'
p105
(iLists
SmallLists
p106
(dp107
g8
I85
sg9
(lp108
F0.00088824033737182622
aF0.00088933706283569338
asg11
I2
sg12
g13
sg14
(lp109
F0.32649170160293578
aF0.32630192041397094
aF0.32795463800430297
aF0.32542978525161742
aF0.32553659677505492
asg16
F2
sg17
I4
sg18
I20000
sg19
(F0.32553659677505492
F0.32642483711242676
F0.00088824033737182622
tp110
sbsS'CompareUnicode'
p111
(iUnicode
CompareUnicode
p112
(dp113
g8
I50
sg9
(lp114
F0.0016921520233154298
aF0.0016898512840270996
asg11
I2
sg12
g13
sg14
(lp115
F0.30563217401504517
aF0.30575209856033325
aF0.30590015649795532
aF0.30596023797988892
aF0.30602008104324341
asg16
F2
sg17
I4
sg18
I37500
sg19
(F0.30602008104324341
F0.30770993232727051
F0.0016898512840270996
tp116
sbsS'SimpleListManipulation'
p117
(iLists
SimpleListManipulation
p118
(dp119
g8
I90
sg9
(lp120
F0.0014425992965698242
aF0.0014427423477172852
asg11
I2
sg12
g13
sg14
(lp121
F0.22472126483917237
aF0.22477753162384034
aF0.22469146251678468
aF0.2247403383255005
aF0.22473437786102296
asg16
F2
sg17
I4
sg18
I32500
sg19
(F0.22473437786102296
F0.22617697715759277
F0.0014425992965698242
tp122
sbsS'DictWithFloatKeys'
p123
(iDict
DictWithFloatKeys
p124
(dp125
g8
I60
sg9
(lp126
F0.0016676068305969238
aF0.0016650557518005371
asg11
I2
sg12
g13
sg14
(lp127
F0.27012211084365845
aF0.26891785860061646
aF0.26948481798171997
aF0.26918798685073853
aF0.26882106065750122
asg16
F2
sg17
I4
sg18
I37500
sg19
(F0.26882106065750122
F0.27048611640930176
F0.0016650557518005371
tp128
sbsS'CreateNewInstances'
p129
(iNewInstances
CreateNewInstances
p130
(dp131
g8
I14
sg9
(lp132
F0.0007869482040405273
aF0.00077884197235107418
asg11
I2
sg12
g13
sg14
(lp133
F0.31023914813995362
aF0.30805428028106691
aF0.30756433010101319
aF0.3068781614303589
aF0.30560524463653566
asg16
F2
sg17
I4
sg18
I15000
sg19
(F0.30560524463653566
F0.30638408660888672
F0.00077884197235107418
tp134
sbsS'TryExcept'
p135
(iExceptions
TryExcept
p136
(dp137
g8
I150
sg9
(lp138
F0.0016766548156738283
aF0.0016669511795043945
asg11
I2
sg12
g13
sg14
(lp139
F0.19335110187530519
aF0.19334108829498292
aF0.19330008029937745
aF0.19330317974090577
aF0.1933072328567505
asg16
F2
sg17
I4
sg18
I37500
sg19
(F0.1933072328567505
F0.19497418403625488
F0.0016669511795043945
tp140
sbsS'ComplexPythonFunctionCalls'
p141
(iCalls
ComplexPythonFunctionCalls
p142
(dp143
g8
I20
sg9
(lp144
F0.0011183977127075197
aF0.0011160612106323243
asg11
I2
sg12
g13
sg14
(lp145
F0.3424579858779907
aF0.34037492275238035
aF0.34167692661285398
aF0.34050700664520261
aF0.33869192600250242
asg16
F2
sg17
I4
sg18
I25000
sg19
(F0.33869192600250242
F0.33980798721313477
F0.0011160612106323243
tp146
sbsS'TryRaiseExcept'
p147
(iExceptions
TryRaiseExcept
p148
(dp149
g8
I8
sg9
(lp150
F0.00088915824890136721
aF0.00088845491409301753
asg11
I2
sg12
g13
sg14
(lp151
F0.42326368093490602
aF0.42241467237472535
aF0.42123044729232789
aF0.42030252218246461
aF0.42303360700607301
asg16
F2
sg17
I4
sg18
I20000
sg19
(F0.42303360700607301
F0.42392206192016602
F0.00088845491409301753
tp152
sbsS'IfThenElse'
p153
(iConstructs
IfThenElse
p154
(dp155
g8
I90
sg9
(lp156
F0.0016673922538757325
aF0.0016651034355163574
asg11
I2
sg12
g13
sg14
(lp157
F0.23928977251052858
aF0.24010397195816041
aF0.23961282968521119
aF0.23909689188003541
aF0.23963071107864381
asg16
F2
sg17
I4
sg18
I37500
sg19
(F0.23963071107864381
F0.24129581451416016
F0.0016651034355163574
tp158
sbsS'NormalInstanceAttribute'
p159
(iLookups
NormalInstanceAttribute
p160
(dp161
g8
I120
sg9
(lp162
F0.0011160016059875489
aF0.0011152029037475586
asg11
I2
sg12
g13
sg14
(lp163
F0.2735668420791626
aF0.27353465557098389
aF0.27344381809234619
aF0.27371084690093994
aF0.27346384525299072
asg16
F2
sg17
I4
sg18
I25000
sg19
(F0.27346384525299072
F0.27457904815673828
F0.0011152029037475586
tp164
sbsS'BuiltinFunctionCalls'
p165
(iCalls
BuiltinFunctionCalls
p166
(dp167
g8
I85
sg9
(lp168
F0.00066820383071899416
aF0.00066595077514648433
asg11
I2
sg12
g13
sg14
(lp169
F0.32864708900451661
aF0.33547492027282716
aF0.33110399246215821
aF0.3285531520843506
aF0.32867999076843263
asg16
F2
sg17
I4
sg18
I15000
sg19
(F0.32867999076843263
F0.3293459415435791
F0.00066595077514648433
tp170
sbsS'UnicodeMappings'
p171
(iUnicode
UnicodeMappings
p172
(dp173
g8
I36
sg9
(lp174
F0.00069944858551025397
aF0.00068885087966918945
asg11
I2
sg12
g13
sg14
(lp175
F0.23653024435043335
aF0.23760527372360229
aF0.23755425214767456
aF0.23761314153671265
aF0.23761719465255737
asg16
F2
sg17
I4
sg18
I2500
sg19
(F0.23761719465255737
F0.23830604553222656
F0.00068885087966918945
tp176
sbsS'CompareFloats'
p177
(iNumbers
CompareFloats
p178
(dp179
g8
I150
sg9
(lp180
F0.00089124441146850588
aF0.00088759660720825193
asg11
I2
sg12
g13
sg14
(lp181
F0.22904256582260132
aF0.2289781928062439
aF0.22900942564010621
aF0.22902754545211793
aF0.22904137372970582
asg16
F2
sg17
I4
sg18
I20000
sg19
(F0.22904137372970582
F0.22992897033691406
F0.00088759660720825193
tp182
sbsS'StringMappings'
p183
(iStrings
StringMappings
p184
(dp185
g8
I36
sg9
(lp186
F0.00091390609741210944
aF0.00091274976730346688
asg11
I2
sg12
g13
sg14
(lp187
F0.2580432057380676
aF0.259079372882843
aF0.26279536485671995
aF0.25955930948257444
aF0.25907031297683714
asg16
F2
sg17
I4
sg18
I17500
sg19
(F0.25907031297683714
F0.25998306274414062
F0.00091274976730346688
tp188
sbsS'TryFinally'
p189
(iWith
TryFinally
p190
(dp191
g8
I20
sg9
(lp192
F0.00088964700698852546
aF0.00089110136032104497
asg11
I2
sg12
g13
sg14
(lp193
F0.28437746763229371
aF0.28578413724899293
aF0.28530443906784059
aF0.28441752195358277
aF0.28513945341110231
asg16
F2
sg17
I4
sg18
I20000
sg19
(F0.28513945341110231
F0.28602910041809082
F0.00088964700698852546
tp194
sbsS'Recursion'
p195
(iCalls
Recursion
p196
(dp197
g8
I5
sg9
(lp198
F0.001122105121612549
aF0.0011123061180114747
asg11
I2
sg12
g13
sg14
(lp199
F0.37597552537918089
aF0.37606588602066038
aF0.37607375383377073
aF0.37580767869949339
aF0.37598673105239866
asg16
F2
sg17
I4
sg18
I25000
sg19
(F0.37598673105239866
F0.37709903717041016
F0.0011123061180114747
tp200
sbsS'SimpleLongArithmetic'
p201
(iArithmetic
SimpleLongArithmetic
p202
(dp203
g8
I110
sg9
(lp204
F0.00066535472869873043
aF0.00066516399383544924
asg11
I2
sg12
g13
sg14
(lp205
F0.23669888973236083
aF0.23681094646453857
aF0.23665192127227783
aF0.23712804317474365
aF0.23740198612213134
asg16
F2
sg17
I4
sg18
I15000
sg19
(F0.23740198612213134
F0.2380671501159668
F0.00066516399383544924
tp206
sbsS'SimpleDictManipulation'
p207
(iDict
SimpleDictManipulation
p208
(dp209
g8
I120
sg9
(lp210
F0.0011098980903625488
aF0.0011152029037475586
asg11
I2
sg12
g13
sg14
(lp211
F0.27272099256515503
aF0.27103918790817261
aF0.27124017477035522
aF0.2710840106010437
aF0.27124303579330444
asg16
F2
sg17
I4
sg18
I25000
sg19
(F0.27124303579330444
F0.27235293388366699
F0.0011098980903625488
tp212
sbsS'WithRaiseExcept'
p213
(iWith
WithRaiseExcept
p214
(dp215
g8
I8
sg9
(lp216
F0.0011161088943481446
aF0.0011130452156066896
asg11
I2
sg12
g13
sg14
(lp217
F1.0316330313682556
aF1.0298658728599548
aF1.034788978099823
aF1.0337149024009704
aF1.0310908675193786
asg16
F2
sg17
I4
sg18
I25000
sg19
(F1.0310908675193786
F1.0322039127349854
F0.0011130452156066896
tp218
sbsS'UnicodeProperties'
p219
(iUnicode
UnicodeProperties
p220
(dp221
g8
I40
sg9
(lp222
F0.0053122401237487796
aF0.005314946174621582
asg11
I2
sg12
g13
sg14
(lp223
F0.32896276712417605
aF0.32869859933853152
aF0.32891269922256472
aF0.32915278673171999
aF0.32972284555435183
asg16
F2
sg17
I4
sg18
I25000
sg19
(F0.32972284555435183
F0.33503508567810059
F0.0053122401237487796
tp224
sbsS'SimpleIntFloatArithmetic'
p225
(iArithmetic
SimpleIntFloatArithmetic
p226
(dp227
g8
I110
sg9
(lp228
F0.0013311028480529786
aF0.0013309597969055175
asg11
I2
sg12
g13
sg14
(lp229
F0.2111479163169861
aF0.21162189245224
aF0.21138609647750856
aF0.21139682531356813
aF0.21140898466110231
asg16
F2
sg17
I4
sg18
I30000
sg19
(F0.21140898466110231
F0.21273994445800781
F0.0013309597969055175
tp230
sbsS'CreateUnicodeWithConcat'
p231
(iUnicode
CreateUnicodeWithConcat
p232
(dp233
g8
I50
sg9
(lp234
F0.00088829994201660161
aF0.00089035034179687502
asg11
I2
sg12
g13
sg14
(lp235
F0.27057461738586425
aF0.27193169593811034
aF0.27275066375732421
aF0.27143173217773436
aF0.27193861007690429
asg16
F2
sg17
I4
sg18
I20000
sg19
(F0.27193861007690429
F0.2728269100189209
F0.00088829994201660161
tp236
sbsS'ListSlicing'
p237
(iLists
ListSlicing
p238
(dp239
g8
I175
sg9
(lp240
F0.00027849674224853513
aF0.00027800798416137694
asg11
I2
sg12
g13
sg14
(lp241
F0.35275005102157592
aF0.35266898870468139
aF0.35289787054061889
aF0.35279701948165892
aF0.35294007062911986
asg16
F2
sg17
I4
sg18
I200
sg19
(F0.35294007062911986
F0.35321807861328125
F0.00027800798416137694
tp242
sbsS'SimpleListComprehensions'
p243
(iLists
SimpleListComprehensions
p244
(dp245
g8
I6
sg9
(lp246
F0.00022524595260620117
aF0.00022485256195068357
asg11
I2
sg12
g13
sg14
(lp247
F0.28660628795623777
aF0.28930733203887937
aF0.28938624858856199
aF0.28824708461761472
aF0.28391716480255125
asg16
F2
sg17
I4
sg18
I5000
sg19
(F0.28391716480255125
F0.28414201736450195
F0.00022485256195068357
tp248
sbsS'CompareLongs'
p249
(iNumbers
CompareLongs
p250
(dp251
g8
I150
sg9
(lp252
F0.00077674388885498049
aF0.00077979564666748053
asg11
I2
sg12
g13
sg14
(lp253
F0.23052217960357665
aF0.23046615123748779
aF0.23048617839813232
aF0.2305140733718872
aF0.23050525188446044
asg16
F2
sg17
I4
sg18
I17500
sg19
(F0.23050525188446044
F0.23128199577331543
F0.00077674388885498049
tp254
sbsS'SimpleIntegerArithmetic'
p255
(iArithmetic
SimpleIntegerArithmetic
p256
(dp257
g8
I110
sg9
(lp258
F0.0013318419456481935
aF0.0013334989547729493
asg11
I2
sg12
g13
sg14
(lp259
F0.21128817796707153
aF0.21106406450271606
aF0.21123930215835571
aF0.21130915880203247
aF0.2110092282295227
asg16
F2
sg17
I4
sg18
I30000
sg19
(F0.2110092282295227
F0.2123410701751709
F0.0013318419456481935
tp260
sbsS'SpecialClassAttribute'
p261
(iLookups
SpecialClassAttribute
p262
(dp263
g8
I120
sg9
(lp264
F0.0011150479316711427
aF0.0011139988899230957
asg11
I2
sg12
g13
sg14
(lp265
F0.29378618001937867
aF0.29327691793441774
aF0.2927678942680359
aF0.29303921461105348
aF0.29148520231246949
asg16
F2
sg17
I4
sg18
I25000
sg19
(F0.29148520231246949
F0.29259920120239258
F0.0011139988899230957
tp266
sbsS'SecondImport'
p267
(iImports
SecondImport
p268
(dp269
g8
I25
sg9
(lp270
F0.00044355392456054684
aF0.00044349431991577145
asg11
I2
sg12
g13
sg14
(lp271
F0.43796964883804324
aF0.4546725392341614
aF0.45389553308486941
aF0.45614763498306277
aF0.45413967370986941
asg16
F2
sg17
I4
sg18
I10000
sg19
(F0.45413967370986941
F0.45458316802978516
F0.00044349431991577145
tp272
sbsS'WithFinally'
p273
(iWith
WithFinally
p274
(dp275
g8
I20
sg9
(lp276
F0.00088884830474853524
aF0.0008887529373168946
asg11
I2
sg12
g13
sg14
(lp277
F0.41326625347137452
aF0.41369230747222902
aF0.41139228343963624
aF0.42309815883636476
aF0.40858538150787355
asg16
F2
sg17
I4
sg18
I20000
sg19
(F0.40858538150787355
F0.40947413444519043
F0.0008887529373168946
tp278
sbsS'TupleSlicing'
p279
(iTuples
TupleSlicing
p280
(dp281
g8
I5250
sg9
(lp282
F0.00017840862274169921
aF0.00017720460891723633
asg11
I2
sg12
g13
sg14
(lp283
F0.29692977666854858
aF0.29693669080734253
aF0.29863685369491577
aF0.29928678274154663
aF0.29827374219894409
asg16
F2
sg17
I4
sg18
I125
sg19
(F0.29827374219894409
F0.29845094680786133
F0.00017720460891723633
tp284
sbsS'SimpleFloatArithmetic'
p285
(iArithmetic
SimpleFloatArithmetic
p286
(dp287
g8
I110
sg9
(lp288
F0.0013312935829162599
aF0.0013309478759765626
asg11
I2
sg12
g13
sg14
(lp289
F0.25356092453002932
aF0.25330605506896975
aF0.25313820838928225
aF0.25356688499450686
aF0.25341024398803713
asg16
F2
sg17
I4
sg18
I30000
sg19
(F0.25341024398803713
F0.25474119186401367
F0.0013309478759765626
tp290
sbsS'StringPredicates'
p291
(iStrings
StringPredicates
p292
(dp293
g8
I70
sg9
(lp294
F0.0053329586982727049
aF0.0052937030792236323
asg11
I2
sg12
g13
sg14
(lp295
F0.27104821205139162
aF0.2722953796386719
aF0.273638391494751
aF0.27209534645080569
aF0.27381029129028323
asg16
F2
sg17
I4
sg18
I25000
sg19
(F0.27381029129028323
F0.27910399436950684
F0.0052937030792236323
tp296
sbsS'BuiltinMethodLookup'
p297
(iLookups
BuiltinMethodLookup
p298
(dp299
g8
I150
sg9
(lp300
F0.00077755451202392572
aF0.00077700614929199219
asg11
I2
sg12
g13
sg14
(lp301
F0.24718499183654785
aF0.24279093742370605
aF0.24740290641784668
aF0.2426600456237793
aF0.24759197235107422
asg16
F2
sg17
I4
sg18
I17500
sg19
(F0.24759197235107422
F0.24836897850036621
F0.00077700614929199219
tp302
sbsS'SimpleComplexArithmetic'
p303
(iArithmetic
SimpleComplexArithmetic
p304
(dp305
g8
I110
sg9
(lp306
F0.00088725090026855471
aF0.000887441635131836
asg11
I2
sg12
g13
sg14
(lp307
F0.22821869850158691
aF0.22835769653320312
aF0.22779884338378906
aF0.22820057868957519
aF0.22808685302734374
asg16
F2
sg17
I4
sg18
I20000
sg19
(F0.22808685302734374
F0.2289741039276123
F0.00088725090026855471
tp308
sbsS'ConcatUnicode'
p309
(iUnicode
ConcatUnicode
p310
(dp311
g8
I50
sg9
(lp312
F0.00077120065689086916
aF0.00077040195465087895
asg11
I2
sg12
g13
sg14
(lp313
F0.32265870571136473
aF0.33060543537139891
aF0.32215540409088134
aF0.3221186876296997
aF0.32286159992218016
asg16
F2
sg17
I4
sg18
I15000
sg19
(F0.32286159992218016
F0.32363200187683105
F0.00077040195465087895
tp314
sbsS'CompareInternedStrings'
p315
(iStrings
CompareInternedStrings
p316
(dp317
g8
I50
sg9
(lp318
F0.0033448100090026855
aF0.0033879041671752929
asg11
I2
sg12
g13
sg14
(lp319
F0.2977053761482239
aF0.29868909120559695
aF0.29594107866287234
aF0.29741212129592898
aF0.29579015970230105
asg16
F2
sg17
I4
sg18
I75000
sg19
(F0.29579015970230105
F0.29913496971130371
F0.0033448100090026855
tp320
sbsS'CompareStrings'
p321
(iStrings
CompareStrings
p322
(dp323
g8
I50
sg9
(lp324
F0.0022420525550842282
aF0.0022479534149169918
asg11
I2
sg12
g13
sg14
(lp325
F0.23295406103134156
aF0.23294380903244019
aF0.23293904066085816
aF0.2329609751701355
aF0.23298290967941285
asg16
F2
sg17
I4
sg18
I50000
sg19
(F0.23298290967941285
F0.23522496223449707
F0.0022420525550842282
tp326
sbsS'SmallTuples'
p327
(iTuples
SmallTuples
p328
(dp329
g8
I60
sg9
(lp330
F0.00099834203720092782
aF0.00099949836730957027
asg11
I2
sg12
g13
sg14
(lp331
F0.30385175943374632
aF0.30414978265762327
aF0.30474749803543089
aF0.30437055826187132
aF0.30310860872268675
asg16
F2
sg17
I4
sg18
I22500
sg19
(F0.30310860872268675
F0.3041069507598877
F0.00099834203720092782
tp332
sbsS'NormalClassAttribute'
p333
(iLookups
NormalClassAttribute
p334
(dp335
g8
I120
sg9
(lp336
F0.0011151075363159181
aF0.0011180520057678222
asg11
I2
sg12
g13
sg14
(lp337
F0.29620478153228758
aF0.29548404216766355
aF0.29063293933868406
aF0.29130694866180418
aF0.29047987461090086
asg16
F2
sg17
I4
sg18
I25000
sg19
(F0.29047987461090086
F0.2915949821472168
F0.0011151075363159181
tp338
sbsS'CreateInstances'
p339
(iInstances
CreateInstances
p340
(dp341
g8
I14
sg9
(lp342
F0.00089999437332153329
aF0.00089950561523437504
asg11
I2
sg12
g13
sg14
(lp343
F0.418699312210083
aF0.41888933181762694
aF0.41487960815429686
aF0.41606550216674804
aF0.42128162384033202
asg16
F2
sg17
I4
sg18
I20000
sg19
(F0.42128162384033202
F0.42218112945556641
F0.00089950561523437504
tp344
sbsS'DictWithStringKeys'
p345
(iDict
DictWithStringKeys
p346
(dp347
g8
I60
sg9
(lp348
F0.0022262573242187497
aF0.002229154109954834
asg11
I2
sg12
g13
sg14
(lp349
F0.24633870124816895
aF0.24563775062561036
aF0.24583468437194825
aF0.24568281173706055
aF0.24565777778625489
asg16
F2
sg17
I4
sg18
I50000
sg19
(F0.24565777778625489
F0.24788403511047363
F0.0022262573242187497
tp350
sbsS'DictCreation'
p351
(iDict
DictCreation
p352
(dp353
g8
I50
sg9
(lp354
F0.00088765621185302743
aF0.0008870482444763184
asg11
I2
sg12
g13
sg14
(lp355
F0.21439205408096312
aF0.21282206773757933
aF0.21242796182632445
aF0.2136717915534973
aF0.21236883401870726
asg16
F2
sg17
I4
sg18
I20000
sg19
(F0.21236883401870726
F0.21325588226318359
F0.0008870482444763184
tp356
sbsS'StringSlicing'
p357
(iStrings
StringSlicing
p358
(dp359
g8
I35
sg9
(lp360
F0.0018255114555358887
aF0.0018340587615966798
asg11
I2
sg12
g13
sg14
(lp361
F0.26609927415847778
aF0.27377158403396606
aF0.26831847429275513
aF0.26504260301589966
aF0.26944857835769653
asg16
F2
sg17
I4
sg18
I40000
sg19
(F0.26944857835769653
F0.27127408981323242
F0.0018255114555358887
tp362
sbssS'name'
p363
S'run2.pybench'
p364
sg11
I2
sg17
I4
sS'machine_details'
p365
(dp366
S'platform'
p367
S'Linux-4.18.0-2-amd64-x86_64-with-debian-buster-sid'
p368
sS'executable'
p369
S'/dev/shm/python27/python2.7-2.7.15/build-shared/python'
p370
sS'builddate'
p371
S'Nov 28 2018 16:27:22'
p372
sS'unicode'
p373
S'UCS4'
p374
sS'implementation'
p375
S'CPython'
p376
sS'compiler'
p377
S'GCC Intel(R) C++ gcc 8.2 mode'
p378
sS'bits'
p379
S'64bit'
p380
sS'processor'
p381
S''
sS'buildno'
p382
S'default'
p383
sS'python'
p384
S'2.7.15+'
p385
ssg12
g13
sg16
F2
sS'roundtimes'
p386
(lp387
F18.206308591365808
aF18.24821780920028
aF18.243294465541833
aF18.226249206066125
aF18.214962232112878
asg18
I5
sS'verbose'
p388
I0
sb.