(i__main__
Benchmark
p1
(dp2
S'tests'
p3
(dp4
S'SpecialInstanceAttribute'
p5
(iLookups
SpecialInstanceAttribute
p6
(dp7
S'operations'
p8
I120
sS'overhead_times'
p9
(lp10
F0.0010301947593688964
aF0.0010296940803527833
asS'calibration_runs'
p11
I2
sS'timer'
p12
S'time.time'
p13
sS'times'
p14
(lp15
F0.24766329526901246
aF0.24762538671493531
aF0.24760249853134156
aF0.2476094126701355
aF0.24760226011276246
asS'version'
p16
F2
sS'warp'
p17
I4
sS'rounds'
p18
I25000
sS'last_timing'
p19
(F0.24760226011276246
F0.24863195419311523
F0.0010296940803527833
tp20
sbsS'PythonFunctionCalls'
p21
(iCalls
PythonFunctionCalls
p22
(dp23
g8
I55
sg9
(lp24
F0.00061630010604858405
aF0.00061610937118530276
asg11
I2
sg12
g13
sg14
(lp25
F0.26125975847244265
aF0.25956984758377077
aF0.25967403650283816
aF0.26001092195510866
aF0.26044794321060183
asg16
F2
sg17
I4
sg18
I15000
sg19
(F0.26044794321060183
F0.26106405258178711
F0.00061610937118530276
tp26
sbsS'CompareFloatsIntegers'
p27
(iNumbers
CompareFloatsIntegers
p28
(dp29
g8
I150
sg9
(lp30
F0.00061500072479248047
aF0.00061540603637695319
asg11
I2
sg12
g13
sg14
(lp31
F0.20875108242034912
aF0.20878088474273682
aF0.20875799655914307
aF0.20880186557769775
aF0.2087630033493042
asg16
F2
sg17
I4
sg18
I15000
sg19
(F0.2087630033493042
F0.20937800407409668
F0.00061500072479248047
tp32
sbsS'PythonMethodCalls'
p33
(iCalls
PythonMethodCalls
p34
(dp35
g8
I75
sg9
(lp36
F0.0003138899803161621
aF0.00031338930130004884
asg11
I2
sg12
g13
sg14
(lp37
F0.30821551084518434
aF0.30362952947616578
aF0.30441559553146363
aF0.30507363080978395
aF0.30798376798629762
asg16
F2
sg17
I4
sg18
I7500
sg19
(F0.30798376798629762
F0.30829715728759766
F0.00031338930130004884
tp38
sbsS'NestedListComprehensions'
p39
(iLists
NestedListComprehensions
p40
(dp41
g8
I6
sg9
(lp42
F0.00020619630813598631
aF0.00020614862442016601
asg11
I2
sg12
g13
sg14
(lp43
F0.32820495367050173
aF0.33079298734664919
aF0.32717880010604861
aF0.32719763517379763
aF0.3274367690086365
asg16
F2
sg17
I4
sg18
I5000
sg19
(F0.3274367690086365
F0.32764291763305664
F0.00020614862442016601
tp44
sbsS'SecondSubmoduleImport'
p45
(iImports
SecondSubmoduleImport
p46
(dp47
g8
I25
sg9
(lp48
F0.00041005611419677731
aF0.00041035413742065426
asg11
I2
sg12
g13
sg14
(lp49
F0.40975191593170168
aF0.4093728303909302
aF0.40980198383331301
aF0.40544703006744387
aF0.4056039094924927
asg16
F2
sg17
I4
sg18
I10000
sg19
(F0.4056039094924927
F0.40601396560668945
F0.00041005611419677731
tp50
sbsS'DictWithIntegerKeys'
p51
(iDict
DictWithIntegerKeys
p52
(dp53
g8
I60
sg9
(lp54
F0.0020521521568298336
aF0.0020528554916381834
asg11
I2
sg12
g13
sg14
(lp55
F0.22315279245376587
aF0.22311965227127076
aF0.22312871217727662
aF0.22327581644058228
aF0.22315779924392701
asg16
F2
sg17
I4
sg18
I50000
sg19
(F0.22315779924392701
F0.22520995140075684
F0.0020521521568298336
tp56
sbsS'UnicodeSlicing'
p57
(iUnicode
UnicodeSlicing
p58
(dp59
g8
I35
sg9
(lp60
F0.0014824032783508302
aF0.0014796614646911622
asg11
I2
sg12
g13
sg14
(lp61
F0.31019946336746218
aF0.3138033986091614
aF0.32022615671157839
aF0.31298633813858034
aF0.31527825593948366
asg16
F2
sg17
I4
sg18
I35000
sg19
(F0.31527825593948366
F0.3167579174041748
F0.0014796614646911622
tp62
sbsS'NestedForLoops'
p63
(iConstructs
NestedForLoops
p64
(dp65
g8
I50000
sg9
(lp66
F2.4902820587158204e-05
aF2.529621124267578e-05
asg11
I2
sg12
g13
sg14
(lp67
F0.26911009550094606
aF0.2689191222190857
aF0.2691480040550232
aF0.26888908147811891
aF0.26913608312606813
asg16
F2
sg17
I4
sg18
I75
sg19
(F0.26913608312606813
F0.26916098594665527
F2.4902820587158204e-05
tp68
sbsS'UnicodePredicates'
p69
(iUnicode
UnicodePredicates
p70
(dp71
g8
I45
sg9
(lp72
F0.0056095004081726076
aF0.0056140422821044922
asg11
I2
sg12
g13
sg14
(lp73
F0.19873858690261842
aF0.19842864274978639
aF0.19760967493057252
aF0.19863249063491822
aF0.20057941675186158
asg16
F2
sg17
I4
sg18
I30000
sg19
(F0.20057941675186158
F0.20618891716003418
F0.0056095004081726076
tp74
sbsS'ForLoops'
p75
(iConstructs
ForLoops
p76
(dp77
g8
I25
sg9
(lp78
F0.00012434720993041991
aF0.00012204647064208985
asg11
I2
sg12
g13
sg14
(lp79
F0.22243788242340087
aF0.22247698307037353
aF0.22252204418182372
aF0.22245409488677978
aF0.22244980335235595
asg16
F2
sg17
I4
sg18
I2500
sg19
(F0.22244980335235595
F0.22257184982299805
F0.00012204647064208985
tp80
sbsS'ConcatStrings'
p81
(iStrings
ConcatStrings
p82
(dp83
g8
I50
sg9
(lp84
F0.0011054039001464845
aF0.0011044025421142578
asg11
I2
sg12
g13
sg14
(lp85
F0.32964248657226564
aF0.32821269035339357
aF0.32933659553527833
aF0.32883067131042482
aF0.32827658653259278
asg16
F2
sg17
I4
sg18
I25000
sg19
(F0.32827658653259278
F0.32938098907470703
F0.0011044025421142578
tp86
sbsS'SecondPackageImport'
p87
(iImports
SecondPackageImport
p88
(dp89
g8
I25
sg9
(lp90
F0.00041000843048095704
aF0.00040980577468872068
asg11
I2
sg12
g13
sg14
(lp91
F0.31142929792404173
aF0.30723527669906614
aF0.30841616392135618
aF0.30433419942855833
aF0.30394128561019895
asg16
F2
sg17
I4
sg18
I10000
sg19
(F0.30394128561019895
F0.3043510913848877
F0.00040980577468872068
tp92
sbsS'CompareIntegers'
p93
(iNumbers
CompareIntegers
p94
(dp95
g8
I150
sg9
(lp96
F0.0012302517890930176
aF0.0012310981750488282
asg11
I2
sg12
g13
sg14
(lp97
F0.22032665014266967
aF0.2202408194541931
aF0.22037671804428099
aF0.22022961378097533
aF0.22027872800827025
asg16
F2
sg17
I4
sg18
I30000
sg19
(F0.22027872800827025
F0.22150897979736328
F0.0012302517890930176
tp98
sbsS'CreateStringsWithConcat'
p99
(iStrings
CreateStringsWithConcat
p100
(dp101
g8
I50
sg9
(lp102
F0.0020518541336059567
aF0.0020519495010375977
asg11
I2
sg12
g13
sg14
(lp103
F0.34453699588775633
aF0.34429214000701902
aF0.34346101284027097
aF0.34440801143646238
aF0.34410998821258543
asg16
F2
sg17
I4
sg18
I50000
sg19
(F0.34410998821258543
F0.34616184234619141
F0.0020518541336059567
tp104
sbsS'SmallLists'
p105
(iLists
SmallLists
p106
(dp107
g8
I85
sg9
(lp108
F0.00082010030746459961
aF0.00081984996795654303
asg11
I2
sg12
g13
sg14
(lp109
F0.2799320936203003
aF0.27981622219085694
aF0.28091604709625245
aF0.28037626743316652
aF0.28083021640777589
asg16
F2
sg17
I4
sg18
I20000
sg19
(F0.28083021640777589
F0.28165006637573242
F0.00081984996795654303
tp110
sbsS'CompareUnicode'
p111
(iUnicode
CompareUnicode
p112
(dp113
g8
I50
sg9
(lp114
F0.0015568971633911134
aF0.0015537500381469728
asg11
I2
sg12
g13
sg14
(lp115
F0.25776317119598391
aF0.25779726505279543
aF0.2578222990036011
aF0.25781013965606692
aF0.25782110691070559
asg16
F2
sg17
I4
sg18
I37500
sg19
(F0.25782110691070559
F0.25937485694885254
F0.0015537500381469728
tp116
sbsS'SimpleListManipulation'
p117
(iLists
SimpleListManipulation
p118
(dp119
g8
I90
sg9
(lp120
F0.0013338565826416016
aF0.0013341069221496583
asg11
I2
sg12
g13
sg14
(lp121
F0.18220314979553223
aF0.18230113983154297
aF0.1822291374206543
aF0.18233404159545899
aF0.1832970142364502
asg16
F2
sg17
I4
sg18
I32500
sg19
(F0.1832970142364502
F0.1846308708190918
F0.0013338565826416016
tp122
sbsS'DictWithFloatKeys'
p123
(iDict
DictWithFloatKeys
p124
(dp125
g8
I60
sg9
(lp126
F0.0015410542488098146
aF0.0015394091606140137
asg11
I2
sg12
g13
sg14
(lp127
F0.23758655786514282
aF0.23760873079299927
aF0.23765355348587036
aF0.23759371042251587
aF0.23765355348587036
asg16
F2
sg17
I4
sg18
I37500
sg19
(F0.23765355348587036
F0.23919296264648438
F0.0015394091606140137
tp128
sbsS'CreateNewInstances'
p129
(iNewInstances
CreateNewInstances
p130
(dp131
g8
I14
sg9
(lp132
F0.00071835517883300781
aF0.0007126927375793457
asg11
I2
sg12
g13
sg14
(lp133
F0.23505443334579468
aF0.23593229055404663
aF0.23351234197616577
aF0.23475426435470581
aF0.23466342687606812
asg16
F2
sg17
I4
sg18
I15000
sg19
(F0.23466342687606812
F0.23537611961364746
F0.0007126927375793457
tp134
sbsS'TryExcept'
p135
(iExceptions
TryExcept
p136
(dp137
g8
I150
sg9
(lp138
F0.0015388488769531251
aF0.0015392541885375977
asg11
I2
sg12
g13
sg14
(lp139
F0.26287617683410647
aF0.26284017562866213
aF0.26280322074890139
aF0.26280918121337893
aF0.26279416084289553
asg16
F2
sg17
I4
sg18
I37500
sg19
(F0.26279416084289553
F0.26433300971984863
F0.0015388488769531251
tp140
sbsS'ComplexPythonFunctionCalls'
p141
(iCalls
ComplexPythonFunctionCalls
p142
(dp143
g8
I20
sg9
(lp144
F0.0010290980339050294
aF0.0010288000106811524
asg11
I2
sg12
g13
sg14
(lp145
F0.3092694044113159
aF0.3048600912094116
aF0.30984613895416258
aF0.30845925807952879
aF0.30904004573822019
asg16
F2
sg17
I4
sg18
I25000
sg19
(F0.30904004573822019
F0.31006884574890137
F0.0010288000106811524
tp146
sbsS'TryRaiseExcept'
p147
(iExceptions
TryRaiseExcept
p148
(dp149
g8
I8
sg9
(lp150
F0.0008202910423278809
aF0.00082054138183593748
asg11
I2
sg12
g13
sg14
(lp151
F0.25166951417922973
aF0.24825464487075805
aF0.24559174776077269
aF0.26437984704971312
aF0.25131570100784301
asg16
F2
sg17
I4
sg18
I20000
sg19
(F0.25131570100784301
F0.2521359920501709
F0.0008202910423278809
tp152
sbsS'IfThenElse'
p153
(iConstructs
IfThenElse
p154
(dp155
g8
I90
sg9
(lp156
F0.001539444923400879
aF0.0015424489974975586
asg11
I2
sg12
g13
sg14
(lp157
F0.21445133686065673
aF0.21534254550933837
aF0.2158196210861206
aF0.21393849849700927
aF0.2148735761642456
asg16
F2
sg17
I4
sg18
I37500
sg19
(F0.2148735761642456
F0.21641302108764648
F0.001539444923400879
tp158
sbsS'NormalInstanceAttribute'
p159
(iLookups
NormalInstanceAttribute
p160
(dp161
g8
I120
sg9
(lp162
F0.0010307073593139649
aF0.0010313987731933594
asg11
I2
sg12
g13
sg14
(lp163
F0.20870516300201417
aF0.20406935214996338
aF0.20394823551177979
aF0.20447251796722413
aF0.20892641544342042
asg16
F2
sg17
I4
sg18
I25000
sg19
(F0.20892641544342042
F0.20995712280273438
F0.0010307073593139649
tp164
sbsS'BuiltinFunctionCalls'
p165
(iCalls
BuiltinFunctionCalls
p166
(dp167
g8
I85
sg9
(lp168
F0.00061684846878051758
aF0.00061590671539306645
asg11
I2
sg12
g13
sg14
(lp169
F0.29853003025054931
aF0.29580109119415282
aF0.2954932928085327
aF0.2981170892715454
aF0.29590599536895751
asg16
F2
sg17
I4
sg18
I15000
sg19
(F0.29590599536895751
F0.29652190208435059
F0.00061590671539306645
tp170
sbsS'UnicodeMappings'
p171
(iUnicode
UnicodeMappings
p172
(dp173
g8
I36
sg9
(lp174
F0.00056370496749877938
aF0.00055994987487792977
asg11
I2
sg12
g13
sg14
(lp175
F0.23334798812866211
aF0.23306427001953126
aF0.232857084274292
aF0.23260507583618165
aF0.23296318054199219
asg16
F2
sg17
I4
sg18
I2500
sg19
(F0.23296318054199219
F0.23352313041687012
F0.00055994987487792977
tp176
sbsS'CompareFloats'
p177
(iNumbers
CompareFloats
p178
(dp179
g8
I150
sg9
(lp180
F0.00082020759582519538
aF0.00082104206085205085
asg11
I2
sg12
g13
sg14
(lp181
F0.21177477836608888
aF0.21183295249938966
aF0.21176762580871583
aF0.21175379753112794
aF0.21174974441528321
asg16
F2
sg17
I4
sg18
I20000
sg19
(F0.21174974441528321
F0.2125699520111084
F0.00082020759582519538
tp182
sbsS'StringMappings'
p183
(iStrings
StringMappings
p184
(dp185
g8
I36
sg9
(lp186
F0.00083525180816650395
aF0.0008353471755981446
asg11
I2
sg12
g13
sg14
(lp187
F0.28337280750274657
aF0.28523962497711181
aF0.28469579219818114
aF0.28307955265045165
aF0.28294174671173095
asg16
F2
sg17
I4
sg18
I17500
sg19
(F0.28294174671173095
F0.28377699851989746
F0.00083525180816650395
tp188
sbsS'TryFinally'
p189
(iWith
TryFinally
p190
(dp191
g8
I20
sg9
(lp192
F0.00082175731658935553
aF0.00082105398178100586
asg11
I2
sg12
g13
sg14
(lp193
F0.25488573312759399
aF0.2545810341835022
aF0.25419694185256958
aF0.25390678644180298
aF0.25497490167617798
asg16
F2
sg17
I4
sg18
I20000
sg19
(F0.25497490167617798
F0.25579595565795898
F0.00082105398178100586
tp194
sbsS'Recursion'
p195
(iCalls
Recursion
p196
(dp197
g8
I5
sg9
(lp198
F0.0010264039039611817
aF0.0010271430015563966
asg11
I2
sg12
g13
sg14
(lp199
F0.33669279813766478
aF0.33657978773117064
aF0.33631967306137084
aF0.33815072774887084
aF0.33633540868759154
asg16
F2
sg17
I4
sg18
I25000
sg19
(F0.33633540868759154
F0.33736181259155273
F0.0010264039039611817
tp200
sbsS'SimpleLongArithmetic'
p201
(iArithmetic
SimpleLongArithmetic
p202
(dp203
g8
I110
sg9
(lp204
F0.00061484575271606454
aF0.00061479806900024416
asg11
I2
sg12
g13
sg14
(lp205
F0.21575721502304077
aF0.2161441683769226
aF0.21512016057968139
aF0.21605404615402221
aF0.21383317708969116
asg16
F2
sg17
I4
sg18
I15000
sg19
(F0.21383317708969116
F0.21444797515869141
F0.00061479806900024416
tp206
sbsS'SimpleDictManipulation'
p207
(iDict
SimpleDictManipulation
p208
(dp209
g8
I120
sg9
(lp210
F0.0010259628295898437
aF0.0010262489318847658
asg11
I2
sg12
g13
sg14
(lp211
F0.23788304328918458
aF0.23794908523559571
aF0.23811597824096681
aF0.23784704208374025
aF0.23796005249023439
asg16
F2
sg17
I4
sg18
I25000
sg19
(F0.23796005249023439
F0.23898601531982422
F0.0010259628295898437
tp212
sbsS'WithRaiseExcept'
p213
(iWith
WithRaiseExcept
p214
(dp215
g8
I8
sg9
(lp216
F0.0010280966758728029
aF0.0010261058807373047
asg11
I2
sg12
g13
sg14
(lp217
F0.64203100204467778
aF0.63857989311218266
aF0.64521794319152836
aF0.66101388931274419
aF0.64519672393798833
asg16
F2
sg17
I4
sg18
I25000
sg19
(F0.64519672393798833
F0.64622282981872559
F0.0010261058807373047
tp218
sbsS'UnicodeProperties'
p219
(iUnicode
UnicodeProperties
p220
(dp221
g8
I40
sg9
(lp222
F0.0046551585197448725
aF0.0046712040901184084
asg11
I2
sg12
g13
sg14
(lp223
F0.27415271997451784
aF0.2741758465766907
aF0.27423497438430788
aF0.27438899278640749
aF0.27373095750808718
asg16
F2
sg17
I4
sg18
I25000
sg19
(F0.27373095750808718
F0.27838611602783203
F0.0046551585197448725
tp224
sbsS'SimpleIntFloatArithmetic'
p225
(iArithmetic
SimpleIntFloatArithmetic
p226
(dp227
g8
I110
sg9
(lp228
F0.0012301564216613771
aF0.0012300014495849609
asg11
I2
sg12
g13
sg14
(lp229
F0.18056297302246094
aF0.17953014373779297
aF0.18010401725769043
aF0.1805272102355957
aF0.18035006523132324
asg16
F2
sg17
I4
sg18
I30000
sg19
(F0.18035006523132324
F0.1815800666809082
F0.0012300014495849609
tp230
sbsS'CreateUnicodeWithConcat'
p231
(iUnicode
CreateUnicodeWithConcat
p232
(dp233
g8
I50
sg9
(lp234
F0.0008198976516723633
aF0.00081980228424072266
asg11
I2
sg12
g13
sg14
(lp235
F0.25393235683441162
aF0.25509202480316162
aF0.25513613224029541
aF0.25493133068084717
aF0.25475513935089111
asg16
F2
sg17
I4
sg18
I20000
sg19
(F0.25475513935089111
F0.25557494163513184
F0.00081980228424072266
tp236
sbsS'ListSlicing'
p237
(iLists
ListSlicing
p238
(dp239
g8
I175
sg9
(lp240
F0.00021080970764160155
aF0.00021030902862548826
asg11
I2
sg12
g13
sg14
(lp241
F0.35066983699798582
aF0.34989187717437742
aF0.35041282176971433
aF0.34980366230010984
aF0.34960863590240476
asg16
F2
sg17
I4
sg18
I200
sg19
(F0.34960863590240476
F0.34981894493103027
F0.00021030902862548826
tp242
sbsS'SimpleListComprehensions'
p243
(iLists
SimpleListComprehensions
p244
(dp245
g8
I6
sg9
(lp246
F0.00020763874053955078
aF0.0002072453498840332
asg11
I2
sg12
g13
sg14
(lp247
F0.28810685873031616
aF0.29069060087203979
aF0.285777747631073
aF0.28618568181991577
aF0.28619283437728882
asg16
F2
sg17
I4
sg18
I5000
sg19
(F0.28619283437728882
F0.28640007972717285
F0.0002072453498840332
tp248
sbsS'CompareLongs'
p249
(iNumbers
CompareLongs
p250
(dp251
g8
I150
sg9
(lp252
F0.00071849822998046884
aF0.00071730613708496102
asg11
I2
sg12
g13
sg14
(lp253
F0.1622696876525879
aF0.16228280067443848
aF0.16229853630065919
aF0.16227183341979981
aF0.16227254867553711
asg16
F2
sg17
I4
sg18
I17500
sg19
(F0.16227254867553711
F0.16298985481262207
F0.00071730613708496102
tp254
sbsS'SimpleIntegerArithmetic'
p255
(iArithmetic
SimpleIntegerArithmetic
p256
(dp257
g8
I110
sg9
(lp258
F0.0012314438819885254
aF0.0012302994728088379
asg11
I2
sg12
g13
sg14
(lp259
F0.17994683980941772
aF0.17983072996139526
aF0.18071764707565308
aF0.17984765768051147
aF0.18107074499130249
asg16
F2
sg17
I4
sg18
I30000
sg19
(F0.18107074499130249
F0.18230104446411133
F0.0012302994728088379
tp260
sbsS'SpecialClassAttribute'
p261
(iLookups
SpecialClassAttribute
p262
(dp263
g8
I120
sg9
(lp264
F0.0010290503501892091
aF0.0010294556617736817
asg11
I2
sg12
g13
sg14
(lp265
F0.2339589238166809
aF0.23506995439529418
aF0.23534580469131469
aF0.23542591333389282
aF0.23541280031204223
asg16
F2
sg17
I4
sg18
I25000
sg19
(F0.23541280031204223
F0.23644185066223145
F0.0010290503501892091
tp266
sbsS'SecondImport'
p267
(iImports
SecondImport
p268
(dp269
g8
I25
sg9
(lp270
F0.00041010379791259763
aF0.0004099130630493164
asg11
I2
sg12
g13
sg14
(lp271
F0.30197398662567138
aF0.29885618686676024
aF0.30035107135772704
aF0.29957692623138427
aF0.29937403202056884
asg16
F2
sg17
I4
sg18
I10000
sg19
(F0.29937403202056884
F0.29978394508361816
F0.0004099130630493164
tp272
sbsS'WithFinally'
p273
(iWith
WithFinally
p274
(dp275
g8
I20
sg9
(lp276
F0.00082175731658935553
aF0.00082210302352905276
asg11
I2
sg12
g13
sg14
(lp277
F0.36125237941741944
aF0.3663721799850464
aF0.36607630252838136
aF0.3633211374282837
aF0.36239845752716066
asg16
F2
sg17
I4
sg18
I20000
sg19
(F0.36239845752716066
F0.36322021484375
F0.00082175731658935553
tp278
sbsS'TupleSlicing'
p279
(iTuples
TupleSlicing
p280
(dp281
g8
I5250
sg9
(lp282
F0.00013425350189208982
aF0.00013439655303955076
asg11
I2
sg12
g13
sg14
(lp283
F0.27551887035369871
aF0.27728984355926511
aF0.277958607673645
aF0.2769975423812866
aF0.27755281925201414
asg16
F2
sg17
I4
sg18
I125
sg19
(F0.27755281925201414
F0.27768707275390625
F0.00013425350189208982
tp284
sbsS'SimpleFloatArithmetic'
p285
(iArithmetic
SimpleFloatArithmetic
p286
(dp287
g8
I110
sg9
(lp288
F0.0012315630912780762
aF0.0012309074401855469
asg11
I2
sg12
g13
sg14
(lp289
F0.208128023147583
aF0.20848112106323241
aF0.20816903114318847
aF0.21112828254699706
aF0.20965199470520018
asg16
F2
sg17
I4
sg18
I30000
sg19
(F0.20965199470520018
F0.21088290214538574
F0.0012309074401855469
tp290
sbsS'StringPredicates'
p291
(iStrings
StringPredicates
p292
(dp293
g8
I70
sg9
(lp294
F0.0047307491302490236
aF0.00472259521484375
asg11
I2
sg12
g13
sg14
(lp295
F0.26069140434265137
aF0.26201248168945312
aF0.26269054412841797
aF0.26220250129699707
aF0.26252937316894531
asg16
F2
sg17
I4
sg18
I25000
sg19
(F0.26252937316894531
F0.26725196838378906
F0.00472259521484375
tp296
sbsS'BuiltinMethodLookup'
p297
(iLookups
BuiltinMethodLookup
p298
(dp299
g8
I150
sg9
(lp300
F0.00071824789047241215
aF0.00071750879287719733
asg11
I2
sg12
g13
sg14
(lp301
F0.19510258436203004
aF0.19463671445846559
aF0.19494570493698121
aF0.19511045217514039
aF0.19471253156661988
asg16
F2
sg17
I4
sg18
I17500
sg19
(F0.19471253156661988
F0.19543004035949707
F0.00071750879287719733
tp302
sbsS'SimpleComplexArithmetic'
p303
(iArithmetic
SimpleComplexArithmetic
p304
(dp305
g8
I110
sg9
(lp306
F0.00082399845123291024
aF0.00082064867019653325
asg11
I2
sg12
g13
sg14
(lp307
F0.1917672038078308
aF0.19218634366989135
aF0.19231032133102416
aF0.19234036207199096
aF0.19211434125900267
asg16
F2
sg17
I4
sg18
I20000
sg19
(F0.19211434125900267
F0.19293498992919922
F0.00082064867019653325
tp308
sbsS'ConcatUnicode'
p309
(iUnicode
ConcatUnicode
p310
(dp311
g8
I50
sg9
(lp312
F0.00069955587387084963
aF0.00070021152496337893
asg11
I2
sg12
g13
sg14
(lp313
F0.36765929460525515
aF0.3273832440376282
aF0.33129545450210574
aF0.32693144083023074
aF0.33155437707901003
asg16
F2
sg17
I4
sg18
I15000
sg19
(F0.33155437707901003
F0.33225393295288086
F0.00069955587387084963
tp314
sbsS'CompareInternedStrings'
p315
(iStrings
CompareInternedStrings
p316
(dp317
g8
I50
sg9
(lp318
F0.003090548515319824
aF0.0030930042266845703
asg11
I2
sg12
g13
sg14
(lp319
F0.24469144344329835
aF0.24275834560394288
aF0.24483830928802491
aF0.24345357418060304
aF0.24311645030975343
asg16
F2
sg17
I4
sg18
I75000
sg19
(F0.24311645030975343
F0.24620699882507324
F0.003090548515319824
tp320
sbsS'CompareStrings'
p321
(iStrings
CompareStrings
p322
(dp323
g8
I50
sg9
(lp324
F0.0020701050758361816
aF0.0020676493644714352
asg11
I2
sg12
g13
sg14
(lp325
F0.20019332170486451
aF0.20031229257583619
aF0.20102850198745728
aF0.20012823343276978
aF0.2003134846687317
asg16
F2
sg17
I4
sg18
I50000
sg19
(F0.2003134846687317
F0.20238113403320312
F0.0020676493644714352
tp326
sbsS'SmallTuples'
p327
(iTuples
SmallTuples
p328
(dp329
g8
I60
sg9
(lp330
F0.00092384815216064455
aF0.0009242057800292969
asg11
I2
sg12
g13
sg14
(lp331
F0.2453460931777954
aF0.24600913524627685
aF0.24728920459747314
aF0.24644901752471923
aF0.24666121006011962
asg16
F2
sg17
I4
sg18
I22500
sg19
(F0.24666121006011962
F0.24758505821228027
F0.00092384815216064455
tp332
sbsS'NormalClassAttribute'
p333
(iLookups
NormalClassAttribute
p334
(dp335
g8
I120
sg9
(lp336
F0.0010294437408447266
aF0.001030409336090088
asg11
I2
sg12
g13
sg14
(lp337
F0.236692476272583
aF0.23659853935241698
aF0.23674850463867186
aF0.23665456771850585
aF0.23683362007141112
asg16
F2
sg17
I4
sg18
I25000
sg19
(F0.23683362007141112
F0.23786306381225586
F0.0010294437408447266
tp338
sbsS'CreateInstances'
p339
(iInstances
CreateInstances
p340
(dp341
g8
I14
sg9
(lp342
F0.00083030462265014653
aF0.00082809925079345707
asg11
I2
sg12
g13
sg14
(lp343
F0.29245893955230712
aF0.29262201786041259
aF0.2904118776321411
aF0.29343478679656981
aF0.29344599246978759
asg16
F2
sg17
I4
sg18
I20000
sg19
(F0.29344599246978759
F0.29427409172058105
F0.00082809925079345707
tp344
sbsS'DictWithStringKeys'
p345
(iDict
DictWithStringKeys
p346
(dp347
g8
I60
sg9
(lp348
F0.0020518541336059567
aF0.0020529985427856444
asg11
I2
sg12
g13
sg14
(lp349
F0.1887221097946167
aF0.18882129192352295
aF0.18874809741973878
aF0.18880913257598878
aF0.18877432346343995
asg16
F2
sg17
I4
sg18
I50000
sg19
(F0.18877432346343995
F0.1908261775970459
F0.0020518541336059567
tp350
sbsS'DictCreation'
p351
(iDict
DictCreation
p352
(dp353
g8
I50
sg9
(lp354
F0.00082019567489624026
aF0.0008205533027648926
asg11
I2
sg12
g13
sg14
(lp355
F0.16618462800979614
aF0.16475483179092407
aF0.16603394746780395
aF0.16621872186660766
aF0.16579290628433227
asg16
F2
sg17
I4
sg18
I20000
sg19
(F0.16579290628433227
F0.16661310195922852
F0.00082019567489624026
tp356
sbsS'StringSlicing'
p357
(iStrings
StringSlicing
p358
(dp359
g8
I35
sg9
(lp360
F0.0016838073730468751
aF0.0016828060150146484
asg11
I2
sg12
g13
sg14
(lp361
F0.22304840087890626
aF0.22128815650939943
aF0.21996421813964845
aF0.22777218818664552
aF0.22263021469116212
asg16
F2
sg17
I4
sg18
I40000
sg19
(F0.22263021469116212
F0.22431302070617676
F0.0016828060150146484
tp362
sbssS'name'
p363
S'run1.pybench'
p364
sg11
I2
sg17
I4
sS'machine_details'
p365
(dp366
S'platform'
p367
S'Linux-4.18.0-2-amd64-x86_64-with-debian-buster-sid'
p368
sS'executable'
p369
S'/dev/shm/python27/python2.7-2.7.15/build-static/python'
p370
sS'builddate'
p371
S'Nov 28 2018 16:27:22'
p372
sS'unicode'
p373
S'UCS4'
p374
sS'implementation'
p375
S'CPython'
p376
sS'compiler'
p377
S'GCC Intel(R) C++ gcc 8.2 mode'
p378
sS'bits'
p379
S'64bit'
p380
sS'processor'
p381
S''
sS'buildno'
p382
S'default'
p383
sS'python'
p384
S'2.7.15+'
p385
ssg12
g13
sg16
F2
sS'roundtimes'
p386
(lp387
F15.230238521099093
aF15.172041261196139
aF15.188470208644869
aF15.211547696590426
aF15.18897160291672
asg18
I5
sS'verbose'
p388
I0
sb.