(i__main__
Benchmark
p1
(dp2
S'tests'
p3
(dp4
S'SpecialInstanceAttribute'
p5
(iLookups
SpecialInstanceAttribute
p6
(dp7
S'operations'
p8
I120
sS'overhead_times'
p9
(lp10
F0.0010303020477294923
aF0.0010295510292053223
asS'calibration_runs'
p11
I2
sS'timer'
p12
S'time.time'
p13
sS'times'
p14
(lp15
F0.2476155161857605
aF0.24758642911911011
aF0.24759644269943237
aF0.24758142232894897
aF0.24760144948959351
asS'version'
p16
F2
sS'warp'
p17
I4
sS'rounds'
p18
I25000
sS'last_timing'
p19
(F0.24760144948959351
F0.24863100051879883
F0.0010295510292053223
tp20
sbsS'PythonFunctionCalls'
p21
(iCalls
PythonFunctionCalls
p22
(dp23
g8
I55
sg9
(lp24
F0.00061765909194946291
aF0.00061610937118530276
asg11
I2
sg12
g13
sg14
(lp25
F0.26109572649002077
aF0.26053282022476199
aF0.25890680551528933
aF0.25934096574783327
aF0.26008983850479128
asg16
F2
sg17
I4
sg18
I15000
sg19
(F0.26008983850479128
F0.26070594787597656
F0.00061610937118530276
tp26
sbsS'CompareFloatsIntegers'
p27
(iNumbers
CompareFloatsIntegers
p28
(dp29
g8
I150
sg9
(lp30
F0.00061550140380859384
aF0.0006158113479614258
asg11
I2
sg12
g13
sg14
(lp31
F0.20888147354125977
aF0.20882735252380372
aF0.20881757736206055
aF0.20877156257629395
aF0.20878944396972657
asg16
F2
sg17
I4
sg18
I15000
sg19
(F0.20878944396972657
F0.20940494537353516
F0.00061550140380859384
tp32
sbsS'PythonMethodCalls'
p33
(iCalls
PythonMethodCalls
p34
(dp35
g8
I75
sg9
(lp36
F0.00031324625015258787
aF0.00031375885009765625
asg11
I2
sg12
g13
sg14
(lp37
F0.30395988225936887
aF0.30207589864730833
aF0.30390981435775755
aF0.30207780599594114
aF0.30008963346481321
asg16
F2
sg17
I4
sg18
I7500
sg19
(F0.30008963346481321
F0.30040287971496582
F0.00031324625015258787
tp38
sbsS'NestedListComprehensions'
p39
(iLists
NestedListComprehensions
p40
(dp41
g8
I6
sg9
(lp42
F0.00020635128021240234
aF0.00020630359649658202
asg11
I2
sg12
g13
sg14
(lp43
F0.3278867483139038
aF0.3213416814804077
aF0.31970064640045165
aF0.32203571796417235
aF0.31971662044525145
asg16
F2
sg17
I4
sg18
I5000
sg19
(F0.31971662044525145
F0.31992292404174805
F0.00020630359649658202
tp44
sbsS'SecondSubmoduleImport'
p45
(iImports
SecondSubmoduleImport
p46
(dp47
g8
I25
sg9
(lp48
F0.00041029453277587887
aF0.00040969848632812497
asg11
I2
sg12
g13
sg14
(lp49
F0.40969243049621584
aF0.42570033073425295
aF0.42229428291320803
aF0.43272938728332522
aF0.42461910247802737
asg16
F2
sg17
I4
sg18
I10000
sg19
(F0.42461910247802737
F0.42502880096435547
F0.00040969848632812497
tp50
sbsS'DictWithIntegerKeys'
p51
(iDict
DictWithIntegerKeys
p52
(dp53
g8
I60
sg9
(lp54
F0.0020508050918579099
aF0.0020743489265441892
asg11
I2
sg12
g13
sg14
(lp55
F0.22320802211761476
aF0.22311408519744874
aF0.22313125133514405
aF0.22333009243011476
aF0.22313506603240968
asg16
F2
sg17
I4
sg18
I50000
sg19
(F0.22313506603240968
F0.22518587112426758
F0.0020508050918579099
tp56
sbsS'UnicodeSlicing'
p57
(iUnicode
UnicodeSlicing
p58
(dp59
g8
I35
sg9
(lp60
F0.0014875054359436036
aF0.0014806509017944336
asg11
I2
sg12
g13
sg14
(lp61
F0.33239357471466063
aF0.33147113323211669
aF0.32971637248992919
aF0.33414523601531981
aF0.32869951725006102
asg16
F2
sg17
I4
sg18
I35000
sg19
(F0.32869951725006102
F0.33018016815185547
F0.0014806509017944336
tp62
sbsS'NestedForLoops'
p63
(iConstructs
NestedForLoops
p64
(dp65
g8
I50000
sg9
(lp66
F2.4902820587158204e-05
aF2.4759769439697264e-05
asg11
I2
sg12
g13
sg14
(lp67
F0.26856640577316282
aF0.26903513669967649
aF0.26762131452560423
aF0.26863125562667844
aF0.26894334554672239
asg16
F2
sg17
I4
sg18
I75
sg19
(F0.26894334554672239
F0.26896810531616211
F2.4759769439697264e-05
tp68
sbsS'UnicodePredicates'
p69
(iUnicode
UnicodePredicates
p70
(dp71
g8
I45
sg9
(lp72
F0.0056132555007934572
aF0.005605745315551758
asg11
I2
sg12
g13
sg14
(lp73
F0.19844026565551759
aF0.19785017967224122
aF0.1983811378479004
aF0.19963736534118653
aF0.19983620643615724
asg16
F2
sg17
I4
sg18
I30000
sg19
(F0.19983620643615724
F0.20544195175170898
F0.005605745315551758
tp74
sbsS'ForLoops'
p75
(iConstructs
ForLoops
p76
(dp77
g8
I25
sg9
(lp78
F0.00012415647506713867
aF0.00012205839157104492
asg11
I2
sg12
g13
sg14
(lp79
F0.22249103784561158
aF0.22253204584121705
aF0.22244192361831666
aF0.22248913049697877
aF0.22247697114944459
asg16
F2
sg17
I4
sg18
I2500
sg19
(F0.22247697114944459
F0.22259902954101562
F0.00012205839157104492
tp80
sbsS'ConcatStrings'
p81
(iStrings
ConcatStrings
p82
(dp83
g8
I50
sg9
(lp84
F0.0011058092117309571
aF0.0011039972305297852
asg11
I2
sg12
g13
sg14
(lp85
F0.33093416690826416
aF0.33015406131744385
aF0.32990586757659912
aF0.329475998878479
aF0.32937991619110107
asg16
F2
sg17
I4
sg18
I25000
sg19
(F0.32937991619110107
F0.33048391342163086
F0.0011039972305297852
tp86
sbsS'SecondPackageImport'
p87
(iImports
SecondPackageImport
p88
(dp89
g8
I25
sg9
(lp90
F0.000409853458404541
aF0.00040969848632812497
asg11
I2
sg12
g13
sg14
(lp91
F0.29804244041442873
aF0.30661430358886721
aF0.30442228317260744
aF0.31231322288513186
aF0.3080774784088135
asg16
F2
sg17
I4
sg18
I10000
sg19
(F0.3080774784088135
F0.3084871768951416
F0.00040969848632812497
tp92
sbsS'CompareIntegers'
p93
(iNumbers
CompareIntegers
p94
(dp95
g8
I150
sg9
(lp96
F0.0012359023094177246
aF0.0012315034866333008
asg11
I2
sg12
g13
sg14
(lp97
F0.22023360729217528
aF0.22021644115447997
aF0.22019736766815184
aF0.22039334774017333
aF0.22037856578826903
asg16
F2
sg17
I4
sg18
I30000
sg19
(F0.22037856578826903
F0.22161006927490234
F0.0012315034866333008
tp98
sbsS'CreateStringsWithConcat'
p99
(iStrings
CreateStringsWithConcat
p100
(dp101
g8
I50
sg9
(lp102
F0.0020563006401062012
aF0.0020518064498901366
asg11
I2
sg12
g13
sg14
(lp103
F0.34236719608306887
aF0.34230520725250246
aF0.34002997875213625
aF0.34332611560821535
aF0.33978226184844973
asg16
F2
sg17
I4
sg18
I50000
sg19
(F0.33978226184844973
F0.34183406829833984
F0.0020518064498901366
tp104
sbsS'SmallLists'
p105
(iLists
SmallLists
p106
(dp107
g8
I85
sg9
(lp108
F0.0008205533027648926
aF0.00082100629806518559
asg11
I2
sg12
g13
sg14
(lp109
F0.28082045316696169
aF0.28115257024765017
aF0.27941449880599978
aF0.28153642416000368
aF0.28184040784835818
asg16
F2
sg17
I4
sg18
I20000
sg19
(F0.28184040784835818
F0.28266096115112305
F0.0008205533027648926
tp110
sbsS'CompareUnicode'
p111
(iUnicode
CompareUnicode
p112
(dp113
g8
I50
sg9
(lp114
F0.0015573501586914062
aF0.0015554547309875489
asg11
I2
sg12
g13
sg14
(lp115
F0.25778459310531615
aF0.25777553319931029
aF0.2577924609184265
aF0.25774859189987182
aF0.25775336027145385
asg16
F2
sg17
I4
sg18
I37500
sg19
(F0.25775336027145385
F0.25930881500244141
F0.0015554547309875489
tp116
sbsS'SimpleListManipulation'
p117
(iLists
SimpleListManipulation
p118
(dp119
g8
I90
sg9
(lp120
F0.0013340473175048829
aF0.0013347029685974122
asg11
I2
sg12
g13
sg14
(lp121
F0.18255701065063476
aF0.18362083435058593
aF0.18355407714843749
aF0.18362703323364257
aF0.18356289863586425
asg16
F2
sg17
I4
sg18
I32500
sg19
(F0.18356289863586425
F0.18489694595336914
F0.0013340473175048829
tp122
sbsS'DictWithFloatKeys'
p123
(iDict
DictWithFloatKeys
p124
(dp125
g8
I60
sg9
(lp126
F0.0015398502349853516
aF0.0015394091606140137
asg11
I2
sg12
g13
sg14
(lp127
F0.23777276277542114
aF0.23769074678421021
aF0.23772460222244263
aF0.23775678873062134
aF0.23776966333389282
asg16
F2
sg17
I4
sg18
I37500
sg19
(F0.23776966333389282
F0.23930907249450684
F0.0015394091606140137
tp128
sbsS'CreateNewInstances'
p129
(iNewInstances
CreateNewInstances
p130
(dp131
g8
I14
sg9
(lp132
F0.00072200298309326176
aF0.00071281194686889648
asg11
I2
sg12
g13
sg14
(lp133
F0.24609237909317017
aF0.24649220705032349
aF0.24442106485366821
aF0.24095827341079712
aF0.23908430337905884
asg16
F2
sg17
I4
sg18
I15000
sg19
(F0.23908430337905884
F0.23979711532592773
F0.00071281194686889648
tp134
sbsS'TryExcept'
p135
(iExceptions
TryExcept
p136
(dp137
g8
I150
sg9
(lp138
F0.001545250415802002
aF0.0015485525131225587
asg11
I2
sg12
g13
sg14
(lp139
F0.26280683279037476
aF0.26280683279037476
aF0.2627977728843689
aF0.26279276609420776
aF0.26282495260238647
asg16
F2
sg17
I4
sg18
I37500
sg19
(F0.26282495260238647
F0.26437020301818848
F0.001545250415802002
tp140
sbsS'ComplexPythonFunctionCalls'
p141
(iCalls
ComplexPythonFunctionCalls
p142
(dp143
g8
I20
sg9
(lp144
F0.0010295510292053223
aF0.0010288000106811524
asg11
I2
sg12
g13
sg14
(lp145
F0.31054017543792722
aF0.31080935001373289
aF0.31163713932037351
aF0.31038305759429929
aF0.30760333538055418
asg16
F2
sg17
I4
sg18
I25000
sg19
(F0.30760333538055418
F0.30863213539123535
F0.0010288000106811524
tp146
sbsS'TryRaiseExcept'
p147
(iExceptions
TryRaiseExcept
p148
(dp149
g8
I8
sg9
(lp150
F0.00082070827484130864
aF0.00082020759582519538
asg11
I2
sg12
g13
sg14
(lp151
F0.23968262672424318
aF0.23888392448425294
aF0.23866076469421388
aF0.24035687446594239
aF0.2389387607574463
asg16
F2
sg17
I4
sg18
I20000
sg19
(F0.2389387607574463
F0.23975896835327148
F0.00082020759582519538
tp152
sbsS'IfThenElse'
p153
(iConstructs
IfThenElse
p154
(dp155
g8
I90
sg9
(lp156
F0.0015471100807189942
aF0.0015388011932373046
asg11
I2
sg12
g13
sg14
(lp157
F0.21474404335021974
aF0.21441526412963868
aF0.2145702362060547
aF0.21544904708862306
aF0.2151503086090088
asg16
F2
sg17
I4
sg18
I37500
sg19
(F0.2151503086090088
F0.21668910980224609
F0.0015388011932373046
tp158
sbsS'NormalInstanceAttribute'
p159
(iLookups
NormalInstanceAttribute
p160
(dp161
g8
I120
sg9
(lp162
F0.0010360121726989747
aF0.0010299563407897949
asg11
I2
sg12
g13
sg14
(lp163
F0.20447422266006471
aF0.20709301233291627
aF0.20416904687881471
aF0.20672298669815065
aF0.20383096933364869
asg16
F2
sg17
I4
sg18
I25000
sg19
(F0.20383096933364869
F0.20486092567443848
F0.0010299563407897949
tp164
sbsS'BuiltinFunctionCalls'
p165
(iCalls
BuiltinFunctionCalls
p166
(dp167
g8
I85
sg9
(lp168
F0.00061620473861694329
aF0.00061595439910888672
asg11
I2
sg12
g13
sg14
(lp169
F0.30093300342559814
aF0.29678523540496826
aF0.29683387279510498
aF0.29762208461761475
aF0.2984391450881958
asg16
F2
sg17
I4
sg18
I15000
sg19
(F0.2984391450881958
F0.29905509948730469
F0.00061595439910888672
tp170
sbsS'UnicodeMappings'
p171
(iUnicode
UnicodeMappings
p172
(dp173
g8
I36
sg9
(lp174
F0.00056569576263427741
aF0.00055705308914184577
asg11
I2
sg12
g13
sg14
(lp175
F0.23304284811019899
aF0.23342288732528688
aF0.23330200910568238
aF0.2326337218284607
aF0.23224390745162965
asg16
F2
sg17
I4
sg18
I2500
sg19
(F0.23224390745162965
F0.23280096054077148
F0.00055705308914184577
tp176
sbsS'CompareFloats'
p177
(iNumbers
CompareFloats
p178
(dp179
g8
I150
sg9
(lp180
F0.0008205533027648926
aF0.00082114934921264651
asg11
I2
sg12
g13
sg14
(lp181
F0.21179040670394897
aF0.21175631284713745
aF0.21175845861434936
aF0.21193941831588745
aF0.21181734800338745
asg16
F2
sg17
I4
sg18
I20000
sg19
(F0.21181734800338745
F0.21263790130615234
F0.0008205533027648926
tp182
sbsS'StringMappings'
p183
(iStrings
StringMappings
p184
(dp185
g8
I36
sg9
(lp186
F0.00083730220794677737
aF0.00083490610122680673
asg11
I2
sg12
g13
sg14
(lp187
F0.28441194295883176
aF0.28305104970932005
aF0.28959420919418333
aF0.28399828672409055
aF0.28621319532394407
asg16
F2
sg17
I4
sg18
I17500
sg19
(F0.28621319532394407
F0.2870481014251709
F0.00083490610122680673
tp188
sbsS'TryFinally'
p189
(iWith
TryFinally
p190
(dp191
g8
I20
sg9
(lp192
F0.00082100629806518559
aF0.00082070827484130864
asg11
I2
sg12
g13
sg14
(lp193
F0.25320522785186766
aF0.25506632328033446
aF0.25343220233917235
aF0.25349538326263427
aF0.25357120037078856
asg16
F2
sg17
I4
sg18
I20000
sg19
(F0.25357120037078856
F0.25439190864562988
F0.00082070827484130864
tp194
sbsS'Recursion'
p195
(iCalls
Recursion
p196
(dp197
g8
I5
sg9
(lp198
F0.001027500629425049
aF0.0010262012481689453
asg11
I2
sg12
g13
sg14
(lp199
F0.33458180427551271
aF0.33433074951171876
aF0.3341986656188965
aF0.33472580909729005
aF0.33412070274353028
asg16
F2
sg17
I4
sg18
I25000
sg19
(F0.33412070274353028
F0.33514690399169922
F0.0010262012481689453
tp200
sbsS'SimpleLongArithmetic'
p201
(iArithmetic
SimpleLongArithmetic
p202
(dp203
g8
I110
sg9
(lp204
F0.00061614513397216801
aF0.00061664581298828127
asg11
I2
sg12
g13
sg14
(lp205
F0.21337382793426513
aF0.21197764873504638
aF0.21261780261993407
aF0.21263091564178466
aF0.21275393962860106
asg16
F2
sg17
I4
sg18
I15000
sg19
(F0.21275393962860106
F0.21337008476257324
F0.00061614513397216801
tp206
sbsS'SimpleDictManipulation'
p207
(iDict
SimpleDictManipulation
p208
(dp209
g8
I120
sg9
(lp210
F0.0010274887084960938
aF0.0010263919830322266
asg11
I2
sg12
g13
sg14
(lp211
F0.23738551139831543
aF0.23749971389770508
aF0.23732948303222656
aF0.23753666877746582
aF0.23731660842895508
asg16
F2
sg17
I4
sg18
I25000
sg19
(F0.23731660842895508
F0.2383430004119873
F0.0010263919830322266
tp212
sbsS'WithRaiseExcept'
p213
(iWith
WithRaiseExcept
p214
(dp215
g8
I8
sg9
(lp216
F0.001026296615600586
aF0.0010274529457092285
asg11
I2
sg12
g13
sg14
(lp217
F0.62283287048339842
aF0.62802252769470213
aF0.63126573562622068
aF0.63062367439270017
aF0.62432966232299802
asg16
F2
sg17
I4
sg18
I25000
sg19
(F0.62432966232299802
F0.62535595893859863
F0.001026296615600586
tp218
sbsS'UnicodeProperties'
p219
(iUnicode
UnicodeProperties
p220
(dp221
g8
I40
sg9
(lp222
F0.0046660065650939936
aF0.0046587586402893066
asg11
I2
sg12
g13
sg14
(lp223
F0.27115744352340698
aF0.27136439085006714
aF0.2709161639213562
aF0.2708091139793396
aF0.27157133817672729
asg16
F2
sg17
I4
sg18
I25000
sg19
(F0.27157133817672729
F0.2762300968170166
F0.0046587586402893066
tp224
sbsS'SimpleIntFloatArithmetic'
p225
(iArithmetic
SimpleIntFloatArithmetic
p226
(dp227
g8
I110
sg9
(lp228
F0.0012300014495849609
aF0.0012372612953186035
asg11
I2
sg12
g13
sg14
(lp229
F0.1805419921875
aF0.18153595924377441
aF0.18048691749572754
aF0.18130993843078613
aF0.17968487739562988
asg16
F2
sg17
I4
sg18
I30000
sg19
(F0.17968487739562988
F0.18091487884521484
F0.0012300014495849609
tp230
sbsS'CreateUnicodeWithConcat'
p231
(iUnicode
CreateUnicodeWithConcat
p232
(dp233
g8
I50
sg9
(lp234
F0.00082025527954101565
aF0.00081984996795654303
asg11
I2
sg12
g13
sg14
(lp235
F0.25052506923675538
aF0.25043733119964601
aF0.25078995227813722
aF0.24876315593719484
aF0.24911506175994874
asg16
F2
sg17
I4
sg18
I20000
sg19
(F0.24911506175994874
F0.24993491172790527
F0.00081984996795654303
tp236
sbsS'ListSlicing'
p237
(iLists
ListSlicing
p238
(dp239
g8
I175
sg9
(lp240
F0.0002111077308654785
aF0.00021035671234130858
asg11
I2
sg12
g13
sg14
(lp241
F0.35199372768402098
aF0.34998862743377684
aF0.34988253116607665
aF0.35040776729583739
aF0.34997265338897704
asg16
F2
sg17
I4
sg18
I200
sg19
(F0.34997265338897704
F0.35018301010131836
F0.00021035671234130858
tp242
sbsS'SimpleListComprehensions'
p243
(iLists
SimpleListComprehensions
p244
(dp245
g8
I6
sg9
(lp246
F0.0002074599266052246
aF0.00020725727081298827
asg11
I2
sg12
g13
sg14
(lp247
F0.28254668712615966
aF0.28568975925445556
aF0.27944772243499755
aF0.2817906618118286
aF0.27947561740875243
asg16
F2
sg17
I4
sg18
I5000
sg19
(F0.27947561740875243
F0.27968287467956543
F0.00020725727081298827
tp248
sbsS'CompareLongs'
p249
(iNumbers
CompareLongs
p250
(dp251
g8
I150
sg9
(lp252
F0.00071744918823242194
aF0.00071874856948852541
asg11
I2
sg12
g13
sg14
(lp253
F0.16226739883422853
aF0.16228861808776857
aF0.1622786045074463
aF0.1622633457183838
aF0.1622633457183838
asg16
F2
sg17
I4
sg18
I17500
sg19
(F0.1622633457183838
F0.16298079490661621
F0.00071744918823242194
tp254
sbsS'SimpleIntegerArithmetic'
p255
(iArithmetic
SimpleIntegerArithmetic
p256
(dp257
g8
I110
sg9
(lp258
F0.0012320518493652345
aF0.0012311458587646485
asg11
I2
sg12
g13
sg14
(lp259
F0.18004183769226073
aF0.18041281700134276
aF0.18008975982666015
aF0.18067269325256347
aF0.1808450698852539
asg16
F2
sg17
I4
sg18
I30000
sg19
(F0.1808450698852539
F0.18207621574401855
F0.0012311458587646485
tp260
sbsS'SpecialClassAttribute'
p261
(iLookups
SpecialClassAttribute
p262
(dp263
g8
I120
sg9
(lp264
F0.0010304927825927734
aF0.001035153865814209
asg11
I2
sg12
g13
sg14
(lp265
F0.23437948226928712
aF0.23420758247375489
aF0.23494739532470704
aF0.23399062156677247
aF0.23447866439819337
asg16
F2
sg17
I4
sg18
I25000
sg19
(F0.23447866439819337
F0.23550915718078613
F0.0010304927825927734
tp266
sbsS'SecondImport'
p267
(iImports
SecondImport
p268
(dp269
g8
I25
sg9
(lp270
F0.00040984153747558594
aF0.00040979385375976561
asg11
I2
sg12
g13
sg14
(lp271
F0.28622131347656249
aF0.29041032791137694
aF0.29245119094848632
aF0.30220227241516112
aF0.29241614341735839
asg16
F2
sg17
I4
sg18
I10000
sg19
(F0.29241614341735839
F0.29282593727111816
F0.00040979385375976561
tp272
sbsS'WithFinally'
p273
(iWith
WithFinally
p274
(dp275
g8
I20
sg9
(lp276
F0.00082110166549682624
aF0.00082080364227294928
asg11
I2
sg12
g13
sg14
(lp277
F0.36346108913421632
aF0.36699135303497316
aF0.37030107975006105
aF0.36467225551605226
aF0.36453111171722413
asg16
F2
sg17
I4
sg18
I20000
sg19
(F0.36453111171722413
F0.36535191535949707
F0.00082080364227294928
tp278
sbsS'TupleSlicing'
p279
(iTuples
TupleSlicing
p280
(dp281
g8
I5250
sg9
(lp282
F0.00013495683670043944
aF0.0001339435577392578
asg11
I2
sg12
g13
sg14
(lp283
F0.27615003585815429
aF0.27518706321716307
aF0.27660112380981444
aF0.27547316551208495
aF0.27555994987487792
asg16
F2
sg17
I4
sg18
I125
sg19
(F0.27555994987487792
F0.27569389343261719
F0.0001339435577392578
tp284
sbsS'SimpleFloatArithmetic'
p285
(iArithmetic
SimpleFloatArithmetic
p286
(dp287
g8
I110
sg9
(lp288
F0.0012323975563049317
aF0.0012354016304016115
asg11
I2
sg12
g13
sg14
(lp289
F0.20750759840011596
aF0.20920156240463256
aF0.20843766927719115
aF0.2099707007408142
aF0.2086436629295349
asg16
F2
sg17
I4
sg18
I30000
sg19
(F0.2086436629295349
F0.20987606048583984
F0.0012323975563049317
tp290
sbsS'StringPredicates'
p291
(iStrings
StringPredicates
p292
(dp293
g8
I70
sg9
(lp294
F0.0047290086746215815
aF0.0047107934951782227
asg11
I2
sg12
g13
sg14
(lp295
F0.26097428798675537
aF0.26291930675506592
aF0.26202905178070068
aF0.26283919811248779
aF0.26304519176483154
asg16
F2
sg17
I4
sg18
I25000
sg19
(F0.26304519176483154
F0.26775598526000977
F0.0047107934951782227
tp296
sbsS'BuiltinMethodLookup'
p297
(iLookups
BuiltinMethodLookup
p298
(dp299
g8
I150
sg9
(lp300
F0.00071830749511718754
aF0.00071910619735717776
asg11
I2
sg12
g13
sg14
(lp301
F0.19357876777648925
aF0.19282870292663573
aF0.19360570907592772
aF0.192885684967041
aF0.1943808078765869
asg16
F2
sg17
I4
sg18
I17500
sg19
(F0.1943808078765869
F0.1950991153717041
F0.00071830749511718754
tp302
sbsS'SimpleComplexArithmetic'
p303
(iArithmetic
SimpleComplexArithmetic
p304
(dp305
g8
I110
sg9
(lp306
F0.0008209466934204102
aF0.00082329511642456057
asg11
I2
sg12
g13
sg14
(lp307
F0.192450213432312
aF0.1925880193710327
aF0.19192116260528563
aF0.19215409755706786
aF0.1920069932937622
asg16
F2
sg17
I4
sg18
I20000
sg19
(F0.1920069932937622
F0.19282793998718262
F0.0008209466934204102
tp308
sbsS'ConcatUnicode'
p309
(iUnicode
ConcatUnicode
p310
(dp311
g8
I50
sg9
(lp312
F0.00069950819015502936
aF0.00069974660873413092
asg11
I2
sg12
g13
sg14
(lp313
F0.3324945092201233
aF0.33078027963638307
aF0.32798839807510377
aF0.32475043535232545
aF0.32988048791885377
asg16
F2
sg17
I4
sg18
I15000
sg19
(F0.32988048791885377
F0.33057999610900879
F0.00069950819015502936
tp314
sbsS'CompareInternedStrings'
p315
(iStrings
CompareInternedStrings
p316
(dp317
g8
I50
sg9
(lp318
F0.003110837936401367
aF0.0031155824661254885
asg11
I2
sg12
g13
sg14
(lp319
F0.24046831130981444
aF0.24005227088928222
aF0.23864822387695311
aF0.24103121757507323
aF0.23978595733642577
asg16
F2
sg17
I4
sg18
I75000
sg19
(F0.23978595733642577
F0.24289679527282715
F0.003110837936401367
tp320
sbsS'CompareStrings'
p321
(iStrings
CompareStrings
p322
(dp323
g8
I50
sg9
(lp324
F0.0020655035972595211
aF0.0020761489868164062
asg11
I2
sg12
g13
sg14
(lp325
F0.19898048639297486
aF0.19997135400772095
aF0.19840351343154908
aF0.19967952966690064
aF0.19825569391250611
asg16
F2
sg17
I4
sg18
I50000
sg19
(F0.19825569391250611
F0.20032119750976562
F0.0020655035972595211
tp326
sbsS'SmallTuples'
p327
(iTuples
SmallTuples
p328
(dp329
g8
I60
sg9
(lp330
F0.00092434883117675781
aF0.00092310905456542973
asg11
I2
sg12
g13
sg14
(lp331
F0.24796395301818847
aF0.24734477996826171
aF0.24710803031921386
aF0.24773888587951659
aF0.24802880287170409
asg16
F2
sg17
I4
sg18
I22500
sg19
(F0.24802880287170409
F0.24895191192626953
F0.00092310905456542973
tp332
sbsS'NormalClassAttribute'
p333
(iLookups
NormalClassAttribute
p334
(dp335
g8
I120
sg9
(lp336
F0.0010304570198059082
aF0.0010301589965820313
asg11
I2
sg12
g13
sg14
(lp337
F0.23820095062255858
aF0.23819069862365722
aF0.23828392028808593
aF0.23836975097656249
aF0.23829703330993651
asg16
F2
sg17
I4
sg18
I25000
sg19
(F0.23829703330993651
F0.23932719230651855
F0.0010301589965820313
tp338
sbsS'CreateInstances'
p339
(iInstances
CreateInstances
p340
(dp341
g8
I14
sg9
(lp342
F0.00082950592041015632
aF0.00082859992980957033
asg11
I2
sg12
g13
sg14
(lp343
F0.29955043792724612
aF0.29773321151733401
aF0.29530134201049807
aF0.29644360542297366
aF0.29831042289733889
asg16
F2
sg17
I4
sg18
I20000
sg19
(F0.29831042289733889
F0.29913902282714844
F0.00082859992980957033
tp344
sbsS'DictWithStringKeys'
p345
(iDict
DictWithStringKeys
p346
(dp347
g8
I60
sg9
(lp348
F0.0020552039146423339
aF0.0020659923553466796
asg11
I2
sg12
g13
sg14
(lp349
F0.18870588541030883
aF0.18852587938308715
aF0.18850084543228149
aF0.18886967897415161
aF0.18842169046401977
asg16
F2
sg17
I4
sg18
I50000
sg19
(F0.18842169046401977
F0.19047689437866211
F0.0020552039146423339
tp350
sbsS'DictCreation'
p351
(iDict
DictCreation
p352
(dp353
g8
I50
sg9
(lp354
F0.0008219957351684571
aF0.00081980228424072266
asg11
I2
sg12
g13
sg14
(lp355
F0.16613399982452393
aF0.16595304012298584
aF0.16614329814910889
aF0.16640627384185791
aF0.16636741161346436
asg16
F2
sg17
I4
sg18
I20000
sg19
(F0.16636741161346436
F0.16718721389770508
F0.00081980228424072266
tp356
sbsS'StringSlicing'
p357
(iStrings
StringSlicing
p358
(dp359
g8
I35
sg9
(lp360
F0.0016820549964904786
aF0.0016836047172546387
asg11
I2
sg12
g13
sg14
(lp361
F0.22087405920028685
aF0.22672079801559447
aF0.22728894948959349
aF0.22384999990463256
aF0.22021602392196654
asg16
F2
sg17
I4
sg18
I40000
sg19
(F0.22021602392196654
F0.22189807891845703
F0.0016820549964904786
tp362
sbssS'name'
p363
S'run2.pybench'
p364
sg11
I2
sg17
I4
sS'machine_details'
p365
(dp366
S'platform'
p367
S'Linux-4.18.0-2-amd64-x86_64-with-debian-buster-sid'
p368
sS'executable'
p369
S'/dev/shm/python27/python2.7-2.7.15/build-static/python'
p370
sS'builddate'
p371
S'Nov 28 2018 16:27:22'
p372
sS'unicode'
p373
S'UCS4'
p374
sS'implementation'
p375
S'CPython'
p376
sS'compiler'
p377
S'GCC Intel(R) C++ gcc 8.2 mode'
p378
sS'bits'
p379
S'64bit'
p380
sS'processor'
p381
S''
sS'buildno'
p382
S'default'
p383
sS'python'
p384
S'2.7.15+'
p385
ssg12
g13
sg16
F2
sS'roundtimes'
p386
(lp387
F15.151810574531559
aF15.183333563804631
aF15.163999724388127
aF15.196160483360295
aF15.146334099769597
asg18
I5
sS'verbose'
p388
I0
sb.